0x1000,0x00003b,00009d34:_ZN3mod13MapSelectMenu13scanEntrancesEv
0x1000,0x000075,00000000:_ZN3mod8QuitMenuD2Ev
0x1000,0x00003b,0000a57c:_ZN3mod8NandMenu9fullCloseEv
0x1000,0x00003b,0000b1b4:_ZN3mod17nandSettingsPatchEv
0x1000,0x00003b,00010ce0:_ZN3mod12MenuScrollerC2EPNS_10MenuWindowEPKcfffPFvPS0_PvES8_S6_PFbPNS_10MenuButtonES6_ES6_fPN3wii4RGBAESF_
0x1000,0x00003b,0000bcf4:_ZN3mod9PyCommand10runCommandEPKciPS2_
0x1000,0x00003b,0000a4ac:_ZN3mod16spmarioMainPatchEv
0x1000,0x00003b,0000f848:_ZN3mod7ugProbeEi
0x1000,0x00003b,00001c04:_Znaj
0x1000,0x00003b,0000729c:_ZN3mod13InventoryMenu10chooseSlotEPNS_10MenuButtonEPv
0x1000,0x00003b,00000b54:_ZN3mod8APWindow12cmd_anim_idxEiPPKc
0x1000,0x00003b,00002ef8:_ZN3mod14exceptionPatchEv
0x1000,0x00003b,0000fe14:_ZN3mod3powEii
0x1000,0x00003b,00003a60:_ZN3mod12GameSaveMenuC1Ev
0x1000,0x000065,00000000:_ZN3mod13MapSelectMenuD2Ev
0x1000,0x00003b,000011b4:_ZN3mod13ConsoleWindow4pushEPKcPKN3wii4RGBAEPFvS2_E
0x1000,0x0000f3,00000000:_ZN3mod8APWindow9sInstanceE
0x1000,0x000095,00000000:_ZN3mod10HitboxMenuD1Ev
0x1000,0x00003b,0000eb20:_ZN3mod8StatMenu4dispEv
0x1000,0x00003b,0000be80:_ZN3mod9PyConsole4initEv
0x1000,0x00003b,0000398c:_ZN3mod12GameSaveMenu17openConfirmScreenEPNS_10MenuButtonEPv
0x1000,0x00003b,0000b354:_ZN3mod5patch12_writeBranchEPvS1_b
0x1000,0x00003b,00007c44:_ZN3mod13InventoryMenu12exitIdScreenEv
0x1000,0x0000a5,00000000:_ZN3mod15MenuScrollGroupD2Ev
0x1000,0x0000dc,00000000:_ZTVN3mod10MenuButtonE
0x1000,0x00003b,00010290:_ZN3wii3EXI8EXIProbeEi
0x1000,0x00003b,00010804:_ZN3mod10HitboxMenu11hitboxPatchEv
0x1000,0x0000a1,00000000:_ZN3mod13MenuScrollerHD2Ev
0x1000,0x000045,00000000:_ZN3mod13ConsoleWindowD1Ev
0x1000,0x00003b,0000e914:_ZN3mod12SequenceMenu8getLevelEv
0x1000,0x00008d,00000000:_ZN3mod8BgWindowD1Ev
0x1000,0x00003b,0000c1d0:_ZN3mod13romfontExpandEv
0x1000,0x0000f3,00005360:_ZN3mod15TitleTextWindow9sInstanceE
0x1000,0x00003b,00000fd0:_ZN3mod13ConsoleWindow4dispEv
0x1000,0x0000aa,00000410:_ZN3mod8HPWindow17blacklistedTribesE
0x1000,0x000081,00000000:_ZN3mod8StatMenuD2Ev
0x1000,0x00003b,0000be14:_ZN3mod9PyCommand3addEPKcPFNS_12PyConsoleErrEiPS2_E
0x1000,0x00003b,00011964:_ZN3mod10MenuWindowC1Ev
0x1000,0x000055,00000000:_ZN3mod11InputWindowD1Ev
0x1000,0x000055,00000000:_ZN3mod11InputWindowD2Ev
0x1000,0x00003b,00007b70:_ZN3mod13InventoryMenu12chooseChangeEPNS_10MenuButtonEPv
0x1000,0x00007b,00000000:_ZN3mod13ScriptVarMenuD0Ev
0x1000,0x00003b,00003ed4:_ZN3mod8HPWindow12bossGetMaxHpEPN3spm6npcdrv8NPCEntryE
0x1000,0x000051,00000000:_ZN3mod7HudMenuD2Ev
0x1000,0x00005b,00000000:_ZN3mod13InventoryMenuD0Ev
0x1000,0x00003b,0000b440:_ZN3mod13PitSelectMenu11floorChangeEPNS_15MenuScrollGroupEiPv
0x1000,0x00003b,00005738:_ZN3mod13InventoryMenu16toggleSelectableEPNS_10MenuButtonEPv
0x1000,0x00003b,0000b314:_ZN3mod5patch17clear_DC_IC_CacheEPvj
0x1000,0x00003b,0000979c:_ZN3mod13MapSelectMenu12_doMapChangeEv
0x1000,0x00003b,00006de8:_ZN3mod13InventoryMenu16exitSelectScreenEv
0x1000,0x000089,00000000:_ZN3mod9XYZWindowD2Ev
0x1000,0x00003b,000090e0:_ZN3mod13MapSelectMenu7groupUpEPNS_12MenuScrollerEPv
0x1000,0x00003b,00003838:_ZN3mod12GameSaveMenu14openMainScreenEPNS_10MenuButtonEPv
0x1000,0x00003b,00010330:_ZN3mod8BgWindowC2Ev
0x1000,0x00003b,0000fdbc:_ZN3mod17getModRelLoadAddrEv
0x1000,0x00003b,00001be0:_ZN3mod14customPitPatchEv
0x1000,0x00003b,0000e590:_ZN3mod13ScriptVarMenuC2Ev
0x1000,0x0000ca,00000000:_ZTVN3mod8QuitMenuE
0x1000,0x00004b,00000000:_ZN3mod12GameSaveMenuD0Ev
0x1000,0x00003b,00003e1c:_ZN3mod8HPWindow11npcPosCheckEPN3spm6npcdrv8NPCEntryE
0x1000,0x000099,00000000:_ZN3mod8MenuIconD1Ev
0x1000,0x00003b,000110a0:_ZN3mod13MenuScrollerHC1EPNS_10MenuWindowEPKcfffPFvPS0_PvES8_S6_PFbPNS_10MenuButtonES6_ES6_fPN3wii4RGBAESF_
0x1000,0x00003b,0001064c:_ZN3mod10HitboxMenuC2Ev
0x1000,0x00003b,0000e778:_ZN3mod13ScriptVarMenu5closeEv
0x1000,0x00003b,00011434:_ZN3mod15MenuScrollGroupC1EPNS_10MenuWindowEjffPFvPS0_iPvES4_ibPFbPNS_10MenuButtonES4_ES4_fPN3wii4RGBAESD_
0x1000,0x00003b,0000e9b8:_ZN3mod12SequenceMenuC2Ev
0x1000,0x000041,00000000:_ZN3mod9ChildMenuD1Ev
0x1000,0x00003b,000127d8:_ZN3mod6Window18drawLineCylinderGXEPKN3wii4RGBAEfffffii
0x1000,0x00003b,00011f58:_ZN3mod6Window17drawMessageSearchEPKciiPKN3wii4RGBAEfbbb
0x1000,0x00003b,00010210:_ZN3mod9XYZWindow4initEv
0x1000,0x0000b8,00000000:_ZTVN3mod11InputWindowE
0x1000,0x00003b,000058a0:_ZN3mod13InventoryMenu8idChangeEPNS_15MenuScrollGroupEiPv
0x1000,0x00003b,00010444:_ZN3mod13CentredButtonC2EPNS_10MenuWindowEPKcfPFbPNS_10MenuButtonEPvES7_bfPN3wii4RGBAESC_
0x1000,0x00003b,00010bd0:_ZN3mod8MenuIcon4dispEffb
0x1000,0x00003b,00007dec:_ZN3mod7LogMenuC1Ev
0x1000,0x00003b,00005be0:_ZN3mod13InventoryMenu5getIdEi
0x1000,0x00003b,00010c8c:_ZN3mod8MenuIconC1EPNS_10MenuWindowEiffPFbPNS_10MenuButtonEPvES5_bfPN3wii4RGBAE
0x1000,0x0000f3,00001190:_ZN3mod10gIsDolphinE
0x1000,0x00003b,00007570:_ZN3mod13InventoryMenu12updateIdDispEv
0x1000,0x0000b2,00000000:_ZTVN3mod12GameSaveMenuE
0x1000,0x0000b0,00000000:_ZTVN3mod13ConsoleWindowE
0x1000,0x00003b,0000b05c:_ZN3mod10loadOnBootEv
0x1000,0x00003b,0000c1cc:_unresolved
0x1000,0x0000c6,00000000:_ZTVN3mod8NandMenuE
0x1000,0x000095,00000000:_ZN3mod10HitboxMenuD2Ev
0x1000,0x00003b,00007fb4:_ZN3mod8MainMenuD1Ev
0x1000,0x00003b,00000940:_ZN3mod8APWindow8cmd_stopEiPPKc
0x1000,0x00003b,0000c10c:_epilog
0x1000,0x00003b,0000a528:_ZN3mod8NandMenu5closeEv
0x1000,0x00003b,00004de8:_ZN3mod7HudMenu21updateDecimalPlaceStrEv
0x1000,0x00006d,00000000:_ZN3mod8NandMenuD1Ev
0x1000,0x00004d,00000000:_ZN3mod8HPWindowD2Ev
0x1000,0x00003b,000117f4:_ZN3mod10MenuWindowD0Ev
0x1000,0x00003b,00012694:_ZN3mod6Window14cylinderBarsGXEPKN3wii4RGBAEfffffi
0x1000,0x00003b,0000f958:_ZN3mod6ugSendEiPKvi
0x1000,0x00003b,00007cd0:_ZN3mod13InventoryMenuC2Ev
0x1000,0x00003b,0000fc78:_ZN3mod16evt_get_cur_pixlEPN3spm6evtmgr8EvtEntryEb
0x1000,0x000077,00000000:_ZN3mod8QuitMenuD0Ev
0x1000,0x00003b,00000a84:_ZN3mod8APWindow9cmd_scaleEiPPKc
0x1000,0x0000c0,00000000:_ZTVN3mod13MapDoorWindowE
0x1000,0x00003b,00010610:_ZN3mod10HitboxMenu12optionToggleEPNS_10MenuButtonERb
0x1000,0x0000aa,00001580:_ZN7colours3redE
0x1000,0x000075,00000000:_ZN3mod8QuitMenuD1Ev
0x1000,0x00003b,00010ce0:_ZN3mod12MenuScrollerC1EPNS_10MenuWindowEPKcfffPFvPS0_PvES8_S6_PFbPNS_10MenuButtonES6_ES6_fPN3wii4RGBAESF_
0x1000,0x0000aa,00001588:_ZN7colours5whiteE
0x1000,0x00003b,0000f300:_ZN3mod8StatMenu15updateStatDispsEv
0x1000,0x0000d2,00000000:_ZTVN3mod15TitleTextWindowE
0x1000,0x00003b,0000fcbc:_ZN3mod15evt_freeze_gameEPN3spm6evtmgr8EvtEntryEb
0x1000,0x0000aa,00001578:_ZN7colours6yellowE
0x1000,0x0000f3,00005320:_ZN3mod13PitSelectMenu5sGSW1E
0x1000,0x00003b,0001038c:_ZN3mod13CentredButton4dispEffb
0x1000,0x000073,00000000:_ZN3mod13PitSelectMenuD0Ev
0x1000,0x00003b,00009744:_ZN3mod13MapSelectMenu18updateEntranceDispEv
0x1000,0x00003b,0000d9b4:_ZN3mod13ScriptVarMenu8idChangeEPNS_15MenuScrollGroupEiPv
0x1000,0x00003b,00003b18:_ZN3mod8HPWindowC2Ev
0x1000,0x00009b,00000000:_ZN3mod8MenuIconD0Ev
0x1000,0x00003b,00004e78:_ZN3mod7HudMenuC2Ev
0x1000,0x00003b,0000c8dc:_ZN3mod20evtScriptLoggerPatchEv
0x1000,0x0000d8,00000000:_ZTVN3mod13CentredButtonE
0x1000,0x0000f3,0000536c:_ZN3mod6Window11sWindowListE
0x1000,0x0000f3,00001134:_ZN3mod8HPWindow9sInstanceE
0x1000,0x00003b,00003a9c:_ZN3mod12GameSaveMenu12pitSavePatchEv
0x1000,0x00003b,000038a4:_ZN3mod12GameSaveMenu17initConfirmScreenEv
0x1000,0x00003b,0001165c:_ZN3mod10MenuWindow4dispEv
0x1000,0x00003b,000076dc:_ZN3mod13InventoryMenu12initIdScreenEv
0x1000,0x00003b,00008e5c:_ZN3mod13MapDoorWindow4initEv
0x1000,0x00005d,00000000:_ZN3mod7LogMenuD2Ev
0x1000,0x0000f3,0000532c:_ZN3mod9PyConsole7sParamsE
0x1000,0x00003b,00012ef4:_ZN3mod9PyConsole4mainEv
0x1000,0x00003b,00003f28:_ZN3mod8HPWindow19npcBossBlooperCheckEPN3spm6npcdrv8NPCEntryE
0x1000,0x00003b,00001c10:_ZdlPv
0x1000,0x00003b,00005cf0:_ZN3mod13InventoryMenu8getCountEv
0x1000,0x00003b,00002334:_ZN3mod13evt_nand_openEPN3spm6evtmgr8EvtEntryEb
0x1000,0x000099,00000000:_ZN3mod8MenuIconD2Ev
0x1000,0x00003b,0000e7ac:_ZN3mod12SequenceMenu5closeEv
0x1000,0x0000f3,00001148:_ZN3mod11InputWindow9sInstanceE
0x1000,0x00003b,000040d4:_ZN3mod8HPWindow8bossDispEv
0x1000,0x00003b,00011b80:_ZN3mod10MenuWindow18buttonLinkVerticalEPNS_10MenuButtonES2_
0x1000,0x0000aa,0000157c:_ZN7colours5greenE
0x1000,0x000065,00000000:_ZN3mod13MapSelectMenuD1Ev
0x1000,0x00003b,000028d8:exceptionMessageHandler
0x1000,0x00003b,00010e08:_ZN3mod12MenuScroller4dispEffb
0x1000,0x000069,00000000:_ZN3mod8MiscMenuD2Ev
0x1000,0x00003b,0000e1b8:_ZN3mod13ScriptVarMenu6getValEv
0x1000,0x000097,00000000:_ZN3mod10HitboxMenuD0Ev
0x1000,0x00003b,000025fc:_ZN3mod14evt_nand_checkEPN3spm6evtmgr8EvtEntryEb
0x1000,0x00003b,00012a90:_ZN3mod6Window11drawTextureEPN3wii3tpl9TPLHeaderEjfffPKNS1_4RGBAE
0x1000,0x00003b,00005d5c:_ZN3mod13InventoryMenu15updateItemDispsEv
0x1000,0x00003b,0000db38:_ZN3mod13ScriptVarMenu9valChangeEPNS_15MenuScrollGroupEiPv
0x1000,0x0000f3,00005368:_ZN3mod10MenuWindow8sCurMenuE
0x1000,0x0000da,00000000:_ZTVN3mod10HitboxMenuE
0x1000,0x00003b,000024d8:_ZN3mod14evt_nand_closeEPN3spm6evtmgr8EvtEntryEb
0x1000,0x00003b,00005684:_ZN3mod11InputWindow13updatePressedEv
0x1000,0x00003b,00004e48:_ZN3mod7HudMenu11optionDeltaERai
0x1000,0x0000b4,00000000:_ZTVN3mod8HPWindowE
0x1000,0x0000d0,00000000:_ZTVN3mod8StatMenuE
0x1000,0x00003b,0000a1fc:_ZN3mod8MiscMenu12optionToggleEPNS_10MenuButtonERb
0x1000,0x00003b,000111c8:_ZN3mod15MenuScrollGroup4dispEffb
0x1000,0x00007d,00000000:_ZN3mod12SequenceMenuD2Ev
0x1000,0x00003b,0000e814:_ZN3mod12SequenceMenu9valChangeEPNS_15MenuScrollGroupEiPv
0x1000,0x00003b,00011cb8:_ZN3mod6WindowC2Ev
0x1000,0x00003b,00011b98:_ZN3mod6WindowD1Ev
0x1000,0x00003b,00010b20:_ZN3mod10MenuButtonC2EPNS_10MenuWindowEPKcffPFbPS0_PvES6_bfPN3wii4RGBAESB_
0x1000,0x00003b,00003d74:_ZN3mod8HPWindow12npcDoorCheckEPKc
0x1000,0x00003b,00007460:_ZN3mod13InventoryMenu5setIdEi
0x1000,0x00003b,00006ea8:_ZN3mod13InventoryMenu13getSelectableEv
0x1000,0x00003b,0000d80c:_ZN3mod13ScriptVarMenu9groupDownEPNS_12MenuScrollerEPv
0x1000,0x00003b,000056f0:_ZN3mod11InputWindow4initEv
0x1000,0x00003b,00007dec:_ZN3mod7LogMenuC2Ev
0x1000,0x00003b,000066b8:_ZN3mod13InventoryMenu16initSelectScreenEv
0x1000,0x000049,00000000:_ZN3mod12GameSaveMenuD1Ev
0x1000,0x0000de,00000000:_ZTVN3mod8MenuIconE
0x1000,0x00003b,00010b20:_ZN3mod10MenuButtonC1EPNS_10MenuWindowEPKcffPFbPS0_PvES6_bfPN3wii4RGBAESB_
0x1000,0x00003b,0001084c:_ZN3mod10MenuButton12handleInputsEjj
0x1000,0x00003b,00012294:_ZN3mod6Window9drawBoxGXEPKN3wii4RGBAEffff
0x1000,0x00003b,00011bdc:_ZN3mod6WindowD0Ev
0x1000,0x00003b,0000a100:_ZN3mod8MiscMenu4dispEv
0x1000,0x00003b,00011898:_ZN3mod10MenuWindow9fullCloseEv
0x1000,0x00003b,0000bdc8:_ZN3mod9PyCommandC1EPKcPFNS_12PyConsoleErrEiPS2_E
0x1000,0x00003b,00010998:_ZN3mod10MenuButtonD2Ev
0x1000,0x00003b,00010520:_ZN3mod10HitboxMenu13activateCheckEahfPFvaPvES1_
0x1000,0x00003b,0000e068:_ZN3mod13ScriptVarMenu13updateVarDispEv
0x1000,0x00003b,00003b18:_ZN3mod8HPWindowC1Ev
0x1000,0x00003b,00000ca0:_ZN3mod8APWindowC2Ev
0x1000,0x000079,00000000:_ZN3mod13ScriptVarMenuD2Ev
0x1000,0x00003b,00008ee0:_ZN3mod7MapMenu4dispEv
0x1000,0x0000f3,0000113c:_ZN3mod11InputWindow8sPressedE
0x1000,0x0000eb,000002a4:_ZN3mod9gSettingsE
0x1000,0x00003b,00001c18:_ZdlPvj
0x1000,0x00003b,00011e1c:_ZN3mod6Window11drawMessageEPKciiPKN3wii4RGBAEfbbb
0x1000,0x0000bc,00000000:_ZTVN3mod7LogMenuE
0x1000,0x00003b,00000810:_ZN3mod8APWindow7releaseEv
0x1000,0x0000f3,00001191:_ZN3mod14gIsRiivolutionE
0x1000,0x000049,00000000:_ZN3mod12GameSaveMenuD2Ev
0x1000,0x00003b,0000febc:_ZN3mod11cloneStringEPKc
0x1000,0x0000f3,00001030:exceptionWorkingText
0x1000,0x000061,00000000:_ZN3mod13MapDoorWindowD1Ev
0x1000,0x00003b,000053c0:_ZN3mod11InputWindow4dispEv
0x1000,0x0000f3,00005328:_ZN3mod9PyCommand12sCommandListE
0x1000,0x0000aa,00000208:_ZN3mod8HPWindow10bossTribesE
0x1000,0x00003b,00012cec:_ZN3mod4mainEv
0x1000,0x0000aa,000009a4:_ZN3mod18nand_settings_loadE
0x1000,0x00003b,00003e74:_ZN3mod8HPWindow9bossGetHpEPN3spm6npcdrv8NPCEntryE
0x1000,0x00003b,00008cd4:_ZN3mod13MapDoorWindow4dispEv
0x1000,0x00005f,00000000:_ZN3mod7LogMenuD0Ev
0x1000,0x00003b,00003a60:_ZN3mod12GameSaveMenuC2Ev
0x1000,0x00003b,0001064c:_ZN3mod10HitboxMenuC1Ev
0x1000,0x00003b,0000e9b8:_ZN3mod12SequenceMenuC1Ev
0x1000,0x000053,00000000:_ZN3mod7HudMenuD0Ev
0x1000,0x00003b,00009a24:_ZN3mod13MapSelectMenuC2Ev
0x1000,0x00003b,00008bbc:_ZN3mod8MainMenu16recordLastOptionEv
0x1000,0x00003b,0000fce8:_ZN3mod17evt_unfreeze_gameEPN3spm6evtmgr8EvtEntryEb
0x1000,0x00003d,00000000:_ZN3mod8APWindowD1Ev
0x1000,0x0000ce,00000000:_ZTVN3mod12SequenceMenuE
0x1000,0x000041,00000000:_ZN3mod9ChildMenuD2Ev
0x1000,0x00003b,00011138:_ZN3mod13MenuScrollerH12handleInputsEjj
0x1000,0x00003b,00005d34:_ZN3mod13InventoryMenu6getMaxEv
0x1000,0x00003b,0000b7e4:_ZN3mod13PitSelectMenu12_doMapChangeEv
0x1000,0x00003b,0000b7a4:_ZN3mod13PitSelectMenu15updateGroupDispEv
0x1000,0x00003b,00011c28:_ZN3mod6Window10windowDispEaPv
0x1000,0x000045,00000000:_ZN3mod13ConsoleWindowD2Ev
0x1000,0x00003b,00010c8c:_ZN3mod8MenuIconC2EPNS_10MenuWindowEiffPFbPNS_10MenuButtonEPvES5_bfPN3wii4RGBAE
0x1000,0x00003b,00010a3c:_ZN3mod10MenuButton4dispEffb
0x1000,0x00003b,0000ae8c:_ZN3mod35evt_nandsettings_handle_read_outputEPN3spm6evtmgr8EvtEntryEb
0x1000,0x00003b,0000f5f8:_ZN3mod15TitleTextWindow4dispEv
0x1000,0x00003b,0000a238:_ZN3mod8MiscMenuC2Ev
0x1000,0x00009d,00000000:_ZN3mod12MenuScrollerD2Ev
0x1000,0x0000b6,00000000:_ZTVN3mod7HudMenuE
0x1000,0x0000f3,00001150:_ZN3mod13MapDoorWindow9sInstanceE
0x1000,0x00003b,00000d28:_ZN3mod8APWindow4initEv
0x1000,0x0000e0,00000000:_ZTVN3mod12MenuScrollerE
0x1000,0x00003b,00009310:_ZN3mod13MapSelectMenu5mapUpEPNS_12MenuScrollerEPv
0x1000,0x00003b,00012c74:_ZN3mod6Window19homebuttonDispPatchEv
0x1000,0x0000a7,00000000:_ZN3mod15MenuScrollGroupD0Ev
0x1000,0x00003b,0001254c:_ZN3mod6Window8circleGXEPKN3wii4RGBAEffffi
0x1000,0x00003b,0000b2c8:_ZN3mod10parsePatchEv
0x1000,0x00003b,0000ec0c:_ZN3mod8StatMenu9valueDownEPNS_13MenuScrollerHEPv
0x1000,0x00003b,00010a74:_ZN3mod10MenuButtonD0Ev
0x1000,0x00003b,00003b58:_ZN3mod8HPWindow17npcBossTribeCheckEPN3spm6npcdrv8NPCEntryE
0x1000,0x00003b,00000090:_ZN3mod8APWindow7preDispEv
0x1000,0x0000e6,00000000:_ZTVN3mod10MenuWindowE
0x1000,0x00005d,00000000:_ZN3mod7LogMenuD1Ev
0x1000,0x0000f3,000011c4:_ZN3mod20gNandSettingsSuccessE
0x1000,0x00003b,00011b98:_ZN3mod6WindowD2Ev
0x1000,0x000083,00000000:_ZN3mod8StatMenuD0Ev
0x1000,0x0000eb,00000074:_ZN3mod5modesE
0x1000,0x000085,00000000:_ZN3mod15TitleTextWindowD1Ev
0x1000,0x00007d,00000000:_ZN3mod12SequenceMenuD1Ev
0x1000,0x000043,00000000:_ZN3mod9ChildMenuD0Ev
0x1000,0x0000f3,00001138:_ZN3mod11InputWindow11sPressedIdxE
0x1000,0x00003b,00011ce0:_ZN3mod6Window10drawStringEPKcffPKN3wii4RGBAEfbbb
0x1000,0x00003b,000000f4:_ZN3mod8APWindow4dispEv
0x1000,0x00003b,00011898:_ZN3mod10MenuWindow5closeEv
0x1000,0x00003b,00008744:_ZN3mod8MainMenuC1Ev
0x1000,0x00003b,00004a5c:_ZN3mod8HPWindow4initEv
0x1000,0x00003b,0000ae28:_ZN3mod21evt_nandsettings_failEPN3spm6evtmgr8EvtEntryEb
0x1000,0x00003b,0000acac:_ZN3mod8NandMenu13removeButtonsEv
0x1000,0x0000f3,00000025:inOSPanic
0x1000,0x00003b,00007070:_ZN3mod13InventoryMenu14initEditScreenEv
0x1000,0x00003b,0000e994:_ZN3mod12SequenceMenu6getValEv
0x1000,0x00003b,00006fc8:_ZN3mod13InventoryMenu20updateSelectableDispEv
0x1000,0x00003b,00012360:_ZN3mod6Window16drawLineCuboidGXEPKN3wii4RGBAEffffff
0x1000,0x00003b,00004e78:_ZN3mod7HudMenuC1Ev
0x1000,0x00003b,0000b490:_ZN3mod13PitSelectMenu11doMapChangeEPNS_10MenuButtonEPv
0x1000,0x00003b,00012144:_ZN3mod6Window7setupGXEi
0x1000,0x00003b,00011cb8:_ZN3mod6WindowC1Ev
0x1000,0x0000c4,00000000:_ZTVN3mod8MiscMenuE
0x1000,0x00003b,0000685c:_ZN3mod13InventoryMenu12chooseDeleteEPNS_10MenuButtonEPv
0x1000,0x00003b,0000a540:_ZN3mod8NandMenu15defaultSettingsEPNS_10MenuButtonEPv
0x1000,0x00003b,0000ab40:_ZN3mod8NandMenu4dispEv
0x1000,0x00003b,00011434:_ZN3mod15MenuScrollGroupC2EPNS_10MenuWindowEjffPFvPS0_iPvES4_ibPFbPNS_10MenuButtonES4_ES4_fPN3wii4RGBAESD_
0x1000,0x00004d,00000000:_ZN3mod8HPWindowD1Ev
0x1000,0x00003b,0000b3e0:_ZN3mod13PitSelectMenu9groupSwapEPNS_12MenuScrollerEPv
0x1000,0x00003b,00010f50:_ZN3mod13MenuScrollerH4dispEffb
0x1000,0x00003b,00007fb4:_ZN3mod8MainMenuD2Ev
0x1000,0x00003b,00011964:_ZN3mod10MenuWindowC2Ev
0x1000,0x0000eb,00000044:_ZN3mod11InputWindow9sDpadDefsE
0x1000,0x00003b,00010330:_ZN3mod8BgWindowC1Ev
0x1000,0x00003b,00010444:_ZN3mod13CentredButtonC1EPNS_10MenuWindowEPKcfPFbPNS_10MenuButtonEPvES7_bfPN3wii4RGBAESC_
0x1000,0x00003b,00005620:_ZN3mod11InputWindowC2Ev
0x1000,0x000069,00000000:_ZN3mod8MiscMenuD1Ev
0x1000,0x0000c8,00000000:_ZTVN3mod13PitSelectMenuE
0x1000,0x00003b,00008df4:_ZN3mod13MapDoorWindowC1Ev
0x1000,0x000059,00000000:_ZN3mod13InventoryMenuD1Ev
0x1000,0x00003b,0000e048:_ZN3mod13ScriptVarMenu15updateGroupDispEv
0x1000,0x00003b,00006c88:_ZN3mod13InventoryMenu8finishIdEPNS_10MenuButtonEPv
0x1000,0x00003b,00008df4:_ZN3mod13MapDoorWindowC2Ev
0x1000,0x00008d,00000000:_ZN3mod8BgWindowD2Ev
0x1000,0x00003b,0000bdc8:_ZN3mod9PyCommandC2EPKcPFNS_12PyConsoleErrEiPS2_E
0x1000,0x00003b,00008744:_ZN3mod8MainMenuC2Ev
0x1000,0x00003b,00001c1c:_ZdaPvj
0x1000,0x0000f3,00001192:_ZN3mod14gIsPatchedDiscE
0x1000,0x00003b,000073b4:_ZN3mod13InventoryMenu14exitEditScreenEv
0x1000,0x00006b,00000000:_ZN3mod8MiscMenuD0Ev
0x1000,0x00003b,00011a98:_ZN3mod10MenuWindow16drawStringCentreEPKcfPKN3wii4RGBAEfbbb
0x1000,0x00003b,0000f404:_ZN3mod8StatMenuC2Ev
0x1000,0x00003b,0000bf58:_ZN3mod8QuitMenuC2Ev
0x1000,0x00003b,0000ee88:_ZN3mod8StatMenu7valueUpEPNS_13MenuScrollerHEPv
0x1000,0x0000eb,000002ac:_ZN3mod8newCharsE
0x1000,0x00003b,00011bd8:_ZN3mod6Window7preDispEv
0x1000,0x00003b,0000adc8:_ZN3mod8NandMenuC1Ev
0x1000,0x00003b,0000e2d4:_ZN3mod13ScriptVarMenu6setValEj
0x1000,0x00003b,00010d78:_ZN3mod12MenuScroller12handleInputsEjj
0x1000,0x00003b,00001148:_ZN3mod13ConsoleWindowC2Ev
0x1000,0x0000aa,00000a74:_ZN3mod20nand_settings_deleteE
0x1000,0x00003b,0000f404:_ZN3mod8StatMenuC1Ev
0x1000,0x000091,00000000:_ZN3mod13CentredButtonD1Ev
0x1000,0x00008f,00000000:_ZN3mod8BgWindowD0Ev
0x1000,0x00003b,00001c14:_ZdaPv
0x1000,0x00003b,0000e9a4:_ZN3mod12SequenceMenu6setValEi
0x1000,0x00003b,0000a994:_ZN3mod8NandMenu12spawnButtonsEv
0x1000,0x000093,00000000:_ZN3mod13CentredButtonD0Ev
0x1000,0x00003b,0000e590:_ZN3mod13ScriptVarMenuC1Ev
0x1000,0x0000a1,00000000:_ZN3mod13MenuScrollerHD1Ev
0x1000,0x00003b,00004dc4:_ZN3mod7HudMenu14updateDelayStrEv
0x1000,0x000063,00000000:_ZN3mod13MapDoorWindowD0Ev
0x1000,0x000067,00000000:_ZN3mod13MapSelectMenuD0Ev
0x1000,0x0000eb,00000004:_ZN3mod11InputWindow5sDefsE
0x1000,0x00003b,00005658:_ZN3mod11InputWindow13showAsPressedEj
0x1000,0x000081,00000000:_ZN3mod8StatMenuD1Ev
0x1000,0x00003b,000021d0:_ZN3mod14evt_nand_writeEPN3spm6evtmgr8EvtEntryEb
0x1000,0x00003f,00000000:_ZN3mod8APWindowD0Ev
0x1000,0x00003b,00001c30:_ZnajN3spm6memory4HeapE
0x1000,0x00003b,00002d78:_ZN3mod13exceptionDrawEv
0x1000,0x0000a3,00000000:_ZN3mod13MenuScrollerHD0Ev
0x1000,0x0000f3,0000114c:_ZN3mod8MainMenu11sLastOptionE
0x1000,0x00003b,000115c4:_ZN3mod10MenuWindowD1Ev
0x1000,0x00003b,0000e7e0:_ZN3mod12SequenceMenu9fullCloseEv
0x1000,0x00003b,0000140c:_ZN3mod13ConsoleWindow5_pushEPKcPKN3wii4RGBAEPFvS2_E
0x1000,0x00003b,00000e98:_ZN3mod12tryChainloadEv
0x1000,0x00003b,0000970c:_ZN3mod13MapSelectMenu15updateGroupDispEv
0x1000,0x0000f3,00005364:_ZN3mod9XYZWindow9sInstanceE
0x1000,0x0000be,00000000:_ZTVN3mod8MainMenuE
0x1000,0x00003b,000114e8:_ZN3mod15MenuScrollGroup12handleInputsEjj
0x1000,0x00003b,0000a238:_ZN3mod8MiscMenuC1Ev
0x1000,0x00003b,00010998:_ZN3mod10MenuButtonD1Ev
0x1000,0x000091,00000000:_ZN3mod13CentredButtonD2Ev
0x1000,0x00003b,0000fe8c:_ZN3mod7check3dEv
0x1000,0x00003b,00006b44:_ZN3mod13InventoryMenu5closeEv
0x1000,0x00003b,0000499c:_ZN3mod8HPWindow4dispEv
0x1000,0x00003b,0001030c:_ZN3mod8BgWindow4dispEv
0x1000,0x00003b,0000faec:_ZN3mod6ugRecvEiPvi
0x1000,0x00003b,00011a14:_ZN3mod10MenuWindow15getCentreAlignXEPKcf
0x1000,0x0000aa,00000b34:_ZN3mod19nand_settings_writeE
0x1000,0x00008b,00000000:_ZN3mod9XYZWindowD0Ev
0x1000,0x0000f3,00005324:_ZN3mod13PitSelectMenu8sMapNameE
0x1000,0x00003b,0000fd14:_ZN3mod18updateSaveChecksumEPN3spm7nandmgr8SaveFileE
0x1000,0x00003b,00004e0c:_ZN3mod7HudMenu12optionToggleEPNS_10MenuButtonERb
0x1000,0x00006d,00000000:_ZN3mod8NandMenuD2Ev
0x1000,0x000071,00000000:_ZN3mod13PitSelectMenuD1Ev
0x1000,0x00003b,0000f660:_ZN3mod15TitleTextWindowC1Ev
0x1000,0x00003b,0000eb14:_ZN3mod8StatMenu5closeEv
0x1000,0x00003b,00007d28:_ZN3mod7LogMenu11optionCycleEPNS_10MenuButtonEPv
0x1000,0x0000ba,00000000:_ZTVN3mod13InventoryMenuE
0x1000,0x00003b,00009590:_ZN3mod13MapSelectMenu11doMapChangeEPNS_10MenuButtonEPv
0x1000,0x0000c2,00000000:_ZTVN3mod13MapSelectMenuE
0x1000,0x0000e2,00000000:_ZTVN3mod13MenuScrollerHE
0x1000,0x00003b,0000fdf4:_ZN3mod13getToggleNameEb
0x1000,0x00003b,00005620:_ZN3mod11InputWindowC1Ev
0x1000,0x00003b,00011bd8:_ZN3mod6Window4dispEv
0x1000,0x00003b,00008ed4:_ZN3mod7MapMenu5closeEv
0x1000,0x00003b,0000f660:_ZN3mod15TitleTextWindowC2Ev
0x1000,0x00003b,0000972c:_ZN3mod13MapSelectMenu13updateMapDispEv
0x1000,0x00003b,000091d8:_ZN3mod13MapSelectMenu9groupDownEPNS_12MenuScrollerEPv
0x1000,0x00003b,00006614:_ZN3mod13InventoryMenu10modeChangeEPNS_10MenuButtonEPv
0x1000,0x0000f3,00000008:_ZN3mod13ConsoleWindow9sInstanceE
0x1000,0x00009f,00000000:_ZN3mod12MenuScrollerD0Ev
0x1000,0x0000aa,00001584:_ZN7colours5blackE
0x1000,0x00003b,00001f48:_ZN3mod15evt_nand_deleteEPN3spm6evtmgr8EvtEntryEb
0x1000,0x00003d,00000000:_ZN3mod8APWindowD2Ev
0x1000,0x00003b,00001d4c:_ZN3mod13evtDebugPatchEv
0x1000,0x00003b,0000adc8:_ZN3mod8NandMenuC2Ev
0x1000,0x00003b,00002e14:_ZN3mod19checkExceptionFlagsEv
0x1000,0x00003b,0000794c:_ZN3mod13InventoryMenu7addItemEPNS_10MenuButtonEPv
0x1000,0x00003b,0000d660:_ZN3mod13ScriptVarMenu7groupUpEPNS_12MenuScrollerEPv
0x1000,0x00003b,00003f58:_ZN3mod8HPWindow18npcBossSammerCheckEPN3spm6npcdrv8NPCEntryE
0x1000,0x00003b,00007cd0:_ZN3mod13InventoryMenuC1Ev
0x1000,0x00003b,0000076c:_ZN3mod8APWindow12announceAnimEPKcjj
0x1000,0x00003b,00000ca0:_ZN3mod8APWindowC1Ev
0x1000,0x00003b,000115c4:_ZN3mod10MenuWindowD2Ev
0x1000,0x00003b,00001148:_ZN3mod13ConsoleWindowC1Ev
0x1000,0x00007f,00000000:_ZN3mod12SequenceMenuD0Ev
0x1000,0x0000d4,00000000:_ZTVN3mod9XYZWindowE
0x1000,0x000071,00000000:_ZN3mod13PitSelectMenuD2Ev
0x1000,0x00003b,00011b8c:_ZN3mod10MenuWindow20buttonLinkHorizontalEPNS_10MenuButtonES2_
0x1000,0x00003b,0000b3a0:_ZN3mod5patch10_writeWordEPvj
0x1000,0x00003b,0000ff00:_ZN3mod8strcountEPKcc
0x1000,0x00003b,00000fc4:_ZN3mod13ConsoleWindow10autoFreeCbEPKc
0x1000,0x000059,00000000:_ZN3mod13InventoryMenuD2Ev
0x1000,0x000051,00000000:_ZN3mod7HudMenuD1Ev
0x1000,0x000087,00000000:_ZN3mod15TitleTextWindowD0Ev
0x1000,0x00003b,000101a0:_ZN3mod9XYZWindowC2Ev
0x1000,0x00003b,0000d62c:_ZN3mod13ScriptVarMenu9fullCloseEv
0x1000,0x00003b,000039f8:_ZN3mod12GameSaveMenu10exitScreenEv
0x1000,0x00009d,00000000:_ZN3mod12MenuScrollerD1Ev
0x1000,0x00003b,0000a6e4:_ZN3mod8NandMenu12saveSettingsEPNS_10MenuButtonEPv
0x1000,0x0000ae,00000000:_ZTVN3mod9ChildMenuE
0x1000,0x00003b,0000206c:_ZN3mod13evt_nand_readEPN3spm6evtmgr8EvtEntryEb
0x1000,0x00003b,00001bf8:_Znwj
0x1000,0x00003b,00000860:_ZN3mod8APWindow9cmd_startEiPPKc
0x1000,0x00003b,0000f748:_ZN3mod15TitleTextWindow4initEv
0x1000,0x00003b,000120a8:_ZN3mod6Window7drawBoxEtPKN3wii4RGBAEfffff
0x1000,0x00003b,0000b7d4:_ZN3mod13PitSelectMenu15updateFloorDispEv
0x1000,0x00003b,000101a0:_ZN3mod9XYZWindowC1Ev
0x1000,0x00003b,0000455c:_ZN3mod8HPWindow9enemyDispEv
0x1000,0x00003b,00009928:_ZN3mod13MapSelectMenu12onMapChangedEv
0x1000,0x00003b,00012b68:_ZN3mod6Window10windowMainEv
0x1000,0x00003b,0000d428:_ZN3mod14evtVarLogPatchEv
0x1000,0x00003b,0000fdac:_ZN3mod15getGameRevisionEv
0x1000,0x0000e8,00000000:_ZTVN3mod6WindowE
0x1000,0x0000ac,00000000:_ZTVN3mod8APWindowE
0x1000,0x000079,00000000:_ZN3mod13ScriptVarMenuD1Ev
0x1000,0x00003b,000085ec:_ZN3mod8MainMenuD0Ev
0x1000,0x0000a5,00000000:_ZN3mod15MenuScrollGroupD1Ev
0x1000,0x000057,00000000:_ZN3mod11InputWindowD0Ev
0x1000,0x00003b,00001534:_ZN3mod13ConsoleWindow4initEv
0x1000,0x0000f3,0000115c:_ZN3mod13MapSelectMenu8sDoorStrE
0x1000,0x00003b,00012c8c:OSPanicForwarder
0x1000,0x00004f,00000000:_ZN3mod8HPWindowD0Ev
0x1000,0x00003b,000110a0:_ZN3mod13MenuScrollerHC2EPNS_10MenuWindowEPKcfffPFvPS0_PvES8_S6_PFbPNS_10MenuButtonES6_ES6_fPN3wii4RGBAESF_
0x1000,0x00003b,0000babc:_ZN3mod13PitSelectMenuC2Ev
0x1000,0x000089,00000000:_ZN3mod9XYZWindowD1Ev
0x1000,0x00003b,00009068:_ZN3mod13MapSelectMenu12entranceDownEPNS_12MenuScrollerEPv
0x1000,0x00006f,00000000:_ZN3mod8NandMenuD0Ev
0x1000,0x000085,00000000:_ZN3mod15TitleTextWindowD2Ev
0x1000,0x00003b,0000998c:_ZN3mod11getMapGroupEPKc
0x1000,0x00003b,00009a24:_ZN3mod13MapSelectMenuC1Ev
0x1000,0x0000f3,00001193:_ZN3mod6gIs4_3E
0x1000,0x00003b,0000a58c:_ZN3mod8NandMenu12loadSettingsEPNS_10MenuButtonEPv
0x1000,0x00003b,0000f1f8:_ZN3mod8StatMenu8setValueEii
0x1000,0x00003b,00006f3c:_ZN3mod13InventoryMenu13setSelectableEb
0x1000,0x00003b,0001251c:_ZN3mod6Window14drawLineCubeGXEPKN3wii4RGBAEffff
0x1000,0x0000e4,00000000:_ZTVN3mod15MenuScrollGroupE
0x1000,0x0000d6,00000000:_ZTVN3mod8BgWindowE
0x1000,0x00003b,0000fd70:_ZN3mod13getGameRegionEv
0x1000,0x00003b,0000c04c:_prolog
0x1000,0x00003b,0000bf58:_ZN3mod8QuitMenuC1Ev
0x1000,0x00003b,0000ff64:_ZN3mod9XYZWindow4dispEv
0x1000,0x000047,00000000:_ZN3mod13ConsoleWindowD0Ev
0x1000,0x00003b,000009cc:_ZN3mod8APWindow7cmd_posEiPPKc
0x1000,0x0000cc,00000000:_ZTVN3mod13ScriptVarMenuE
0x1000,0x00003b,0000b188:_ZN3mod20nandSettingsDefaultsEv
0x1000,0x00003b,00008fd0:_ZN3mod13MapSelectMenu10entranceUpEPNS_12MenuScrollerEPv
0x1000,0x00003b,00002d94:exceptionOSReport
0x1000,0x00003b,00000b3c:_ZN3mod8APWindow8cmd_animEiPPKc
0x1000,0x00003b,0000a83c:_ZN3mod8NandMenu14deleteSettingsEPNS_10MenuButtonEPv
0x1000,0x00003b,0000babc:_ZN3mod13PitSelectMenuC1Ev
0x1000,0x00003b,00009450:_ZN3mod13MapSelectMenu7mapDownEPNS_12MenuScrollerEPv
0x1000,0x00003b,0000ff38:_ZN3mod10fileExistsEPKc
0x1000,0x0000f3,0000117c:_ZN3mod13MapSelectMenu23playEffectThisMapChangeE
0x1000,0x00003b,0000f10c:_ZN3mod8StatMenu8getValueEi
0x1000,0x00003b,00000f64:_ZN3mod9ChildMenu5closeEv
0x1000,0x00003b,00001de4:_ZN3mod15evt_nand_createEPN3spm6evtmgr8EvtEntryEb
0x1000,0x000061,00000000:_ZN3mod13MapDoorWindowD2Ev
0x1000,0x00003b,00001c20:_ZnwjN3spm6memory4HeapE
0x1000,0x0000f3,00001154:_ZN3mod13MapSelectMenu11sFullMapStrE
0x1000,0x00003b,0000d418:_ZN3mod14scriptLogOnOffEb
0x1000,0x00003b,00003738:_ZN3mod12GameSaveMenu14initMainScreenEv
0x1000,0x00003b,000012e0:_ZN3mod13ConsoleWindow9pushCloneEPKcPKN3wii4RGBAE
0x1000,0x00003b,00003bc0:_ZN3mod8HPWindow18npcEnemyTribeCheckEPN3spm6npcdrv8NPCEntryE
