/* OS Globals */

800000e4:currentThread
800030c8:firstRel
800030cc:lastRel
// more

/* Dol */

// Runtime.PPCEABI.H.a
// __mem.c
80004000:memcpy
80004104:memset

// mapdata.c
// text
800294e0:mapDataPtr
// data
804031b8:mapDataList

// mobjdrv.c
8002c8e8:mobjNameToPtrNoAssert
// more

// msgdrv.c
8003270c:msgSearch
// more

// swdrv.c
80037eac:swInit
80037f48:swReInit
80037fac:swSet
80037fec:swGet
80038034:swClear
80038074:swByteSet
800380f8:swByteGet
8003811c:_swSet
8003815c:_swGet
800381a4:_swClear
800381e4:_swByteSet
800381f4:_swByteGet
// more

// windowdrv.c
8003ab80:windowDispGX2_Waku_col
// more

// animdrv.c
8004249c:animPoseEntry
80043410:animPoseSetAnim
80045288:animPoseMain
800497c8:animPoseDrawMtx
80049fc4:animPoseRelease
8004a5bc:animPoseAutoRelease
8004c828:animPoseGetAnimBaseDataPtr
// more

// camdrv.c
80055b24:camGetPtr
80055b38:camGetCurPtr
80058294:getScreenPoint
// more

// casedrv.c
8005abe4:caseCheckHitObj
// more

// dispdrv.c
8005af04:dispEntry
// more

// effdrv.c
80061d78:func_80061d78

// fadedrv.c
800677f8:fadeIsFinish
// more

// hitdrv.c
8006f920:hitNameToPtr
// more

// hitdrv.c
8006c4b4:hitGrpFlagOn
8006c6ac:hitGrpFlagOff
8006ee2c:hitCheckFilter
8006ffe4:hitObjGetPos
800703b0:hitGetMapEntryBbox
// more

// icondrv.c
800731b0:iconDispGx
// more

// itemdrv.c
80078b3c:itemEntry
8007bccc:itemTypeNameToId
// more

// item_data.c
803f5f98:itemDataTable
// more

// item_event_data.c
803fbc10:itemEventDataTable
// more

// mapdrv.c
8008cf30:mapGrpFlagOn
8008d2fc:mapGrpFlagOff
8008e11c:mapGrpFlag4On
// more

// evt_snd.c
800d2148:evt_snd_bgmon
800d36f4:func_800d36f4
// more

// evt_sub.c
800d37d8:evt_sub_intpl_msec_init
800d3878:evt_sub_intpl_msec_get_value
800d40a4:evt_sub_random
800d4de4:func_800d4de4
800d74a0:func_800d74a0
// more

// evtmgr.c
800d87e4:evtGetWork
800d8b88:evtEntry
800d8df4:evtEntryType
800d9060:evtChildEntry
800d9370:evtBrotherEntry
800d9b88:evtCheckId
// more

// evtmgr_cmd.c
// text
800ddd5c:evtmgrCmd
800dd500:evt_debug_put_msg
800dd534:evt_debug_put_reg
800de594:evtGetValue
800de9b8:evtSetValue
800df1fc:evtSetFloat
// bss
8050ce30:evt_debug_put_reg_str
// more

// evt_door.c
// text
800e11e0:evt_door_wait_flag
800e11b0:evtDoorGetActiveDoorDesc
800e2610:evt_door_set_door_descs
800e3588:evt_door_set_dokan_descs
800e4118:evt_door_set_map_door_descs
800e4308:evt_door_enable_disable_map_door_desc
// more
// data
8041a2b0:door_init_evt
// more
// sdata
805ae020:evtDoorWp

// evt_fade.c
800e7100:evt_fade_end_wait
// more

// evt_fairy.c
800e8214:evt_fairy_flag_onoff
// more

// evt_guide.c
800ea87c:evt_guide_flag2_onoff
800ea984:evt_guide_check_flag0
// more

// evt_hit.c
800eb72c:evt_hitobj_attr_onoff
// more

// evt_map.c
800edf24:evt_mapobj_flag_onoff
800edfec:evt_mapobj_flag4_onoff
800ed6c0:evt_mapobj_trans
800edb54:evt_mapobj_color
// more

// evt_mario.c
800ef4c0:evt_mario_flag8_onoff
800ef650:evt_mario_key_off
800ef62c:evt_mario_key_on
800efa4c:evt_mario_get_pos
800f25b0:evt_set_gravity
// more

// evt_mobj.c
// text
800f3608:evt_mobj_delete
800f380c:evt_mobj_flag_onoff
800f5ad8:evt_mobj_zyo
800f61ac:evt_mobj_thako
800f6440:evt_mobj_kan
800f6610:evt_mobj_arrow
800f8be8:evt_mobj_blk
// more
// data
8041b6d8:mobj_save_blk_sysevt
// more

// evt_msg.c
800fba54:evt_msg_print
800fbe74:evt_msg_continue
// more

// evt_npc.c
800fe21c:evt_npc_set_position
80102f5c:evt_npc_entry
80103054:func_80103054
80103108:evt_npc_set_anim
80104694:func_80104694
8010368c:evt_npc_flag8_onoff
801039b8:evt_npc_animflag_onoff
80104c94:evt_npc_set_property
80104fac:evt_npc_modify_part
801059d0:func_801059d0
80106724:evt_npc_entry_from_template
80107cfc:func_80107cfc
80107d20:func_80107d20
80108194:func_80108194
8010a910:evt_npc_teleport_effect
// more

// evt_seq.c
8010d028:evt_seq_set_seq
8010d0a0:evt_seq_wait
// more

// evt_shop.c
80111d1c:evt_shop_set_defs
// more

// mario.c
80121f48:marioGetPtr
80122b68:marioCtrlOffChk
80122b7c:marioKeyOffChk
80122bf4:marioKeyOff
80122c2c:marioKeyOn
8012b50c:marioSetGravity
// more

// mario_motion.c
80146f0c:func_80146f0c
// more

// mario_pouch.c
8014c088:pouchGetPtr
8014d458:pouchGetHp
8014d468:pouchAddHp
8014d4f8:pouchGetXp
8014d508:pouchAddXp
8014d5f8:pouchAddItem
8014df4c:pouchRemoveItem
8014eb68:pouchRemoveShopItem
8014f31c:pouchGetCurPixl
8014fa20:pouchCountUseItems
8014fad0:pouchCountKeyItems
8014fb78:pouchCountShopItems
8014fc20:pouchCountChars
8014fc70:pouchCountPixls
// more

// seq_logo.c
80179140:seq_logoMain
// more

// seq_mapchange.c
8017af98:_unload
// more

// seq_title.c
8017bc4c:getNextDanMapname
// more

// seq_game.c
8017ce44:seq_gameInit
// more

// seqdrv.c
// text
8017bf2c:seqInit_SPMARIO
8017bf6c:seqMain
8017c074:seqSetSeq
8017c084:seqGetSeq
// data
80512360:seqWork

// pausewin.c
// text
80184c18:pausewinEntry
80185088:pausewinMoveTo
801850d8:pausewinAppear
80185110:pausewinDisappear
80185148:pausewinDelete
801853cc:pausewinPauseGame
80185510:pausewinUnpauseGame
80188508:pausewinSetMessage
80189cf0:pluswinChapterWinOpen
// more
// data
805ae0f0:pluswinWp
805ae930:pausewinWp
// more

// charpixlitemwin.c
80195f98:charPixlItemWinIsClosed
// more

// hud.c
80199490:hudLoadStats
80199ad0:hudHide
// more

// system.c
8019d150:rand
8019d254:irand
8019c54c:__assert2
// more

// debug.c
8019e33c:OSPanic
// more

// dvdmgr.c
8019e08c:DVDMgrOpen
8019e1e4:DVDMgrRead
8019e2e0:DVDMgrClose
8019e320:DVDMgrGetLength
// more

// filemgr.c
8019f724:fileAllocf
8019fa8c:fileFree
8019fc5c:fileAsyncf
// more

// fontmgr.c
801a0070:FontDrawStart
801a0150:FontDrawStart_alpha
801a0228:FontDrawEdge
801a0234:FontDrawEdgeOff
801a0240:FontDrawRainbowColor
801a02e0:FontDrawRainbowColorOff
801a02e8:FontDrawNoise
801a03f4:FontDrawNoiseOff
801a0420:FontDrawColorIDX
801a04b8:FontDrawColor
801a0554:FontDrawColor_
801a05dc:FontGetDrawColor
801a05e4:FontDrawScale
801a05fc:FontDrawCode
801a09d4:FontDrawString
801a151c:FontDrawMessage
801a1d50:FontDrawMessageMtx
801a28ac:FontGetMessageWidth
// more

// gxsub.c
801a37b4:gxsubInit_Tpl
801a38f4:gxsubDrawTextureMtx
801a3c28:gxsubDrawTexture
801a3f98:gxsubGetTexWidth
801a3ff0:gxsubGetTexHeight
801a4048:gxsubEnableTexAlpha
801a4058:gxsubInit
801a416c:gxsubInit_Cam
801a41a0:gxsubInit_Colour
801a42d8:gxsubDrawQuad
801a44a4:gxsubDrawQuadMtx
801a4678:gxsubDrawQuadGradient
801a4890:gxsubDrawLineSquare
801a4a84:gxsubDrawLineSquareMtx
801a4ca4:gxsubDrawDottedLine
801a5134:gxsubDrawLine
801a52e0:gxsubDrawSphere

// memory.c
// text
801a626c:__memAlloc
801a62f0:__memFree
801a6e34:__dl__FPv
// data
8042a408:size_table
// sdata
805ae168:memoryWp
805ae16c:memorySwp

// parse.c
801a6e9c:parseInit
801a6ebc:getTag
801a6f40:parsePush
801a70f4:parsePop
801a710c:parsePopNext
801a7140:parseGet1Next
801a7488:parseTagGet1

// romfont.c
// text
801a773c:romFontPrintGX
801a7c44:romFontGetWidth
// more
// sdata
805ae170:romfontWp

// spmario.c
// text
801a7ddc:spmarioInit
801a84d8:spmarioMain
801a8748:spmarioDisp
801a8770:spmarioSystemLevel
801a87ec:spmarioGetSystemLevel
801a87f4:viPostCallback
801a898c:wiiDvdCheckThread
801a8db4:wiiRumbleCheck
// 801a9068
// 801a9074
// 801a9080
// 801a908c
// sdata
805ae178:gp
// sbss
805ae9c1:doShutdown

// seqdef.c
804287a8:seq_data

// DEMOInit.c
801a94c8:DEMOBeforeRender
801a9590:DEMODoneRender
// more

// npcdrv.c
// text
801adef0:npcDispMain
801b6f2c:npcNameToPtr
801bfc48:npcSearchAnimDefs
801c9adc:npcGetWorkPtr
// more
// data
8043bf30:npcTribes
80449888:npcEnemyTemplates
// more

// wpadmgr.c
80237688:wpadGetButtonsHeld
802376b0:wpadGetButtonsPressed
802376c4:wpadGetButtonsHeldRepeat
// more

// spmario_snd.c
80238598:spsndExit
8023c93c:spsndBGMOn
8023c948:spsndBGMOff_f_d
// more

// relmgr.c
// text
8023e434:relInit
8023e444:loadRel
8023e600:isRelLoaded
// sdata
805ae1a0:relWp
805ae1a4:relDecompName
805ae1a8:relCompName

// nandmgr.c
8023e9ec:nandGetSaveFiles
8023edcc:nandUpdateSave
8023efe0:nandLoadSave
// more

// homebuttondrv.c
// text
80241914:homebuttonMain
// more
// data
805ae1b8:homebuttonWp

// lz_embedded.c
8036afc0:pitText
// more

// Runtime.PPCEABI.H.a
// runtime.c
802560a4:__div2i
// more

// MSL_C.PPCEABI.bare.H.a
// printf.c
8025cf40:vsprintf
8025cfc0:snprintf
8025d098:sprintf
// scanf.c
8025e784:sscanf
// more

// string.c
8025a874:memmove
8025e8fc:strcpy
8025e9bc:strncpy
8025ea78:strcmp
8025eb94:strncmp
8025ebd4:strchr
80267018:strlen
// more

// s_cos.c
80263ea0:cos

// s_sin.c
802642ac:sin

// os.a
// OSCache.c
80270050:DCFlushRange
802700d8:ICInvalidateRange
// more
// OSContext.c
80270934:OSDumpContext
// more
// OSError.c
// text
80270c60:OSReport
80270f78:__OSUnhandledException
802729b8:OSFatal
// more
// rodata
804ea600:exceptionMsg1
804ea6ac:exceptionMsg2
804ea710:exceptionMsg3
// OSFont.c
80273494:OSGetFontEncode
80273868:OSLoadFont
80273c48:OSGetFontTexel
// more
// OSInterrupt.c
80273ed8:OSDisableInterrupts
80273f00:OSRestoreInterrupts
// OSLink.c
80274c0c:OSLink
// more
// OSReset.c
80275fd4:OSShutdownSystem
// more
// OSThread.c
80277ffc:OSSuspendThread
// OSTime
80278370:OSGetTime
// more

// mtx.a
// mtx.c
8027a270:PSMTXIdentity
8027a7b4:PSMTXTrans
8027a7e8:PSMTXTransApply
8027a834:PSMTXScale
8027a85c:PSMTXScaleApply
8027afac:C_MTXOrtho
// more

// dvd.a
// dvdfs.c
8027b910:DVDConvertPathToEntrynum
// more
// dvd_broadway.c
805ae2d8:devDiStr
// more

// vi.a
// vi.c
802837a8:VIWaitForRetrace
8028472c:VIFlush
802848ac:VISetBlack
// more

// gx.a
8028e1b4:GXSetVtxDesc
8028ea44:GXClearVtxDesc
8028ea78:GXSetVtxAttrFmt
8028f3b4:GXSetNumTexGens
8028ff30:GXBegin
802901f8:GXSetCullMode
802912f4:GXSetNumChans
80291318:GXSetChanCtrl
802929d4:GXSetTevOp
80292e10:GXSetAlphaCompare
80292ed4:GXSetTevOrder
80293030:GXSetNumTevStages
80293054:GXSetFog
802933a4:GXSetBlendMode
8029344c:GXSetZMode
80293480:GXSetZCompLoc
80294214:GXSetProjection
80294304:GXLoadPosMtxImm
802943ac:GXSetCurrentMtx
// more

// mem.a
// mem_expHeap.c
80295cb8:MEMGetAllocatableSizeForExpHeapEx
80295d90:MEMGetSizeForMBlockExpHeap

// ipc.a
80298268:IOS_Open
80298448:IOS_Close
// more

// NAND.a
8029983c:NANDCreateAsync
802999dc:NANDDeleteAsync
80299bdc:NANDReadAsync
80299cbc:NANDWriteAsync
8029a73c:NANDSafeOpenAsync
8029ac98:NANDSafeCloseAsync
8029bbe4:NANDChangeDirAsync
8029bdf8:NANDGetHomeDir
8029c5b0:NANDCheckAsync
// more

// exi.a
// text
8026a940:EXIImm
8026ad58:EXISync
8026b058:__EXIProbe
8026b3a8:EXISelect
8026b4d8:EXIDeselect
8026bb3c:EXILock
8026bc38:EXIUnlock
8026bd38:EXIGetID
// more
// bss
80537ed8:Ecb

// lzss10.c
802e2598:lzss10GetDecompSize
802e25d8:lzss10Decompress
802e270c:lzss10ParseHeader

// tpl.c
802e30ec:TPLBind
// more

/* Rel */

// Sections:
//   00000000 0 none
//   80c458fc 1 .text 
//   80ca9ad8 2 .ctors 
//   80ca9adc 3 .dtors 
//   80ca9ae8 4 .rodata 
//   80cf5180 5 .data 
//   80f64340 6 .bss 

// machi.c
1,1,000052e4:evt_machi_set_elv_descs
// more

// dan.c
// text
1,1,3c5b4:evt_dan_read_data
1,1,3c88c:evt_dan_handle_map_parts
1,1,3cb4c:evt_dan_handle_dokans
1,1,3cda0:evt_dan_handle_doors
1,1,3d1c0:evt_dan_get_door_names
1,1,3d228:evt_dan_get_exit_door_name_l
1,1,3d260:evt_dan_get_enemy_info
1,1,3d43c:evt_dan_make_spawn_table
1,1,3d944:evt_dan_get_enemy_spawn_pos
1,1,3db40:evt_dan_decide_key_enemy
1,1,3dbec:danCountdownDone
1,1,3dbfc:evt_dan_start_countdown
1,1,3dc2c:danCheckKeyInMapBbox
1,1,3dd1c:danCheckKeyEnemyInMapBbox
1,1,3de48:evt_dan_handle_key_failsafe
1,1,3df80:evt_dan_handle_chest_room_dokans_and_doors
1,1,3e02c:evt_dan_get_chest_room_item
1,1,3e094:evt_dan_boss_room_set_door_name
1,1,3e0d0:func_80c839cc
1,1,3e140:wracktailDispCb
1,1,3e308:evt_dan_set_wracktail_disp_cb
1,1,3e34c:func_80c83c48
1,1,3e39c:screenBlinkDisp
1,1,3e62c:evt_dan_screen_blink
1,1,3e670:func_80c83f6c
// data
1,5,15ad78:danMapParts
1,5,15adb8:danDokanDescs
1,5,15aeb8:danMapDoorDescs
1,5,15aef8:danFlipsideLockItems
1,5,15af00:danFlopsideLockItems
1,5,15af08:dan_lock_interact_evt
1,5,15afe0:dan_lock_open_evt
1,5,15b018:dan_enemy_room_init_evt
1,5,15b3e0:danChestRoomDokanDesc
1,5,15b400:danChestRoomMapDoorDescs
1,5,15b440:dan_exit_pipe_sign_interact_evt
1,5,15b478:dan_chest_open_evt
1,5,15b5b0:rotenShopItems
1,5,15b6c8:rotenShopDef
1,5,15b6e0:rotenTribeAnimDefs
1,5,15b720:dan_chest_room_init_evt
1,5,15bf68:dan_30_map_door_desc
1,5,15bf88:dan_30_dokan_desc
1,5,15bfa8:dan_70_dokan_desc
1,5,15bfc8:dan_30_init_evt
1,5,15c1f8:dan_70_init_evt
1,5,15c428:dashellTribeAnimDefs
1,5,15c450:dan_30_chest_interact_evt
1,5,15c568:dan_30_chest_open_evt
1,5,15d170:wracktailTribeAnimDefs
1,5,15d1b8:dan_wracktail_main_evt
1,5,15e6a0:dan_start_wracktail_evt
1,5,15e780:dan_70_mario_chest_open_evt
1,5,15e808:dan_70_dark_mario_chest_open_evt
1,5,15e890:dan_70_peach_chest_open_evt
1,5,15e918:dan_70_dark_peach_chest_open_evt
1,5,15e9a0:dan_70_bowser_chest_open_evt
1,5,15ea28:dan_70_dark_bowser_chest_open_evt
1,5,15eab0:dan_70_luigi_chest_open_evt
1,5,15eb38:dan_70_dark_luigi_chest_open_evt
1,5,15ebc0:dan_shadoo_main_evt
1,5,15f408:dan_shadoo_fight_evt
1,5,15fa48:dan_shadoo_defeat_evt
1,5,15fb4c:dan_70_reward_appear_evt
1,5,1606c8:dan_start_shadoo_evt
// bss
1,6,1548:danWp

// wa1_02.c
1,5,d2820:sammerDefsCh6
1,5,d2cd0:sammerDefsEndgame
// more


0x1000,0x00003b,00009d34:_ZN3mod13MapSelectMenu13scanEntrancesEv
0x1000,0x000075,00000000:_ZN3mod8QuitMenuD2Ev
0x1000,0x00003b,0000a57c:_ZN3mod8NandMenu9fullCloseEv
0x1000,0x00003b,0000b1b4:_ZN3mod17nandSettingsPatchEv
0x1000,0x00003b,00010ce0:_ZN3mod12MenuScrollerC2EPNS_10MenuWindowEPKcfffPFvPS0_PvES8_S6_PFbPNS_10MenuButtonES6_ES6_fPN3wii4RGBAESF_
0x1000,0x00003b,0000bcf4:_ZN3mod9PyCommand10runCommandEPKciPS2_
0x1000,0x00003b,0000a4ac:_ZN3mod16spmarioMainPatchEv
0x1000,0x00003b,0000f848:_ZN3mod7ugProbeEi
0x1000,0x00003b,00001c04:_Znaj
0x1000,0x00003b,0000729c:_ZN3mod13InventoryMenu10chooseSlotEPNS_10MenuButtonEPv
0x1000,0x00003b,00000b54:_ZN3mod8APWindow12cmd_anim_idxEiPPKc
0x1000,0x00003b,00002ef8:_ZN3mod14exceptionPatchEv
0x1000,0x00003b,0000fe14:_ZN3mod3powEii
0x1000,0x00003b,00003a60:_ZN3mod12GameSaveMenuC1Ev
0x1000,0x000065,00000000:_ZN3mod13MapSelectMenuD2Ev
0x1000,0x00003b,000011b4:_ZN3mod13ConsoleWindow4pushEPKcPKN3wii4RGBAEPFvS2_E
0x1000,0x0000f3,00000000:_ZN3mod8APWindow9sInstanceE
0x1000,0x000095,00000000:_ZN3mod10HitboxMenuD1Ev
0x1000,0x00003b,0000eb20:_ZN3mod8StatMenu4dispEv
0x1000,0x00003b,0000be80:_ZN3mod9PyConsole4initEv
0x1000,0x00003b,0000398c:_ZN3mod12GameSaveMenu17openConfirmScreenEPNS_10MenuButtonEPv
0x1000,0x00003b,0000b354:_ZN3mod5patch12_writeBranchEPvS1_b
0x1000,0x00003b,00007c44:_ZN3mod13InventoryMenu12exitIdScreenEv
0x1000,0x0000a5,00000000:_ZN3mod15MenuScrollGroupD2Ev
0x1000,0x0000dc,00000000:_ZTVN3mod10MenuButtonE
0x1000,0x00003b,00010290:_ZN3wii3EXI8EXIProbeEi
0x1000,0x00003b,00010804:_ZN3mod10HitboxMenu11hitboxPatchEv
0x1000,0x0000a1,00000000:_ZN3mod13MenuScrollerHD2Ev
0x1000,0x000045,00000000:_ZN3mod13ConsoleWindowD1Ev
0x1000,0x00003b,0000e914:_ZN3mod12SequenceMenu8getLevelEv
0x1000,0x00008d,00000000:_ZN3mod8BgWindowD1Ev
0x1000,0x00003b,0000c1d0:_ZN3mod13romfontExpandEv
0x1000,0x0000f3,00005360:_ZN3mod15TitleTextWindow9sInstanceE
0x1000,0x00003b,00000fd0:_ZN3mod13ConsoleWindow4dispEv
0x1000,0x0000aa,00000410:_ZN3mod8HPWindow17blacklistedTribesE
0x1000,0x000081,00000000:_ZN3mod8StatMenuD2Ev
0x1000,0x00003b,0000be14:_ZN3mod9PyCommand3addEPKcPFNS_12PyConsoleErrEiPS2_E
0x1000,0x00003b,00011964:_ZN3mod10MenuWindowC1Ev
0x1000,0x000055,00000000:_ZN3mod11InputWindowD1Ev
0x1000,0x000055,00000000:_ZN3mod11InputWindowD2Ev
0x1000,0x00003b,00007b70:_ZN3mod13InventoryMenu12chooseChangeEPNS_10MenuButtonEPv
0x1000,0x00007b,00000000:_ZN3mod13ScriptVarMenuD0Ev
0x1000,0x00003b,00003ed4:_ZN3mod8HPWindow12bossGetMaxHpEPN3spm6npcdrv8NPCEntryE
0x1000,0x000051,00000000:_ZN3mod7HudMenuD2Ev
0x1000,0x00005b,00000000:_ZN3mod13InventoryMenuD0Ev
0x1000,0x00003b,0000b440:_ZN3mod13PitSelectMenu11floorChangeEPNS_15MenuScrollGroupEiPv
0x1000,0x00003b,00005738:_ZN3mod13InventoryMenu16toggleSelectableEPNS_10MenuButtonEPv
0x1000,0x00003b,0000b314:_ZN3mod5patch17clear_DC_IC_CacheEPvj
0x1000,0x00003b,0000979c:_ZN3mod13MapSelectMenu12_doMapChangeEv
0x1000,0x00003b,00006de8:_ZN3mod13InventoryMenu16exitSelectScreenEv
0x1000,0x000089,00000000:_ZN3mod9XYZWindowD2Ev
0x1000,0x00003b,000090e0:_ZN3mod13MapSelectMenu7groupUpEPNS_12MenuScrollerEPv
0x1000,0x00003b,00003838:_ZN3mod12GameSaveMenu14openMainScreenEPNS_10MenuButtonEPv
0x1000,0x00003b,00010330:_ZN3mod8BgWindowC2Ev
0x1000,0x00003b,0000fdbc:_ZN3mod17getModRelLoadAddrEv
0x1000,0x00003b,00001be0:_ZN3mod14customPitPatchEv
0x1000,0x00003b,0000e590:_ZN3mod13ScriptVarMenuC2Ev
0x1000,0x0000ca,00000000:_ZTVN3mod8QuitMenuE
0x1000,0x00004b,00000000:_ZN3mod12GameSaveMenuD0Ev
0x1000,0x00003b,00003e1c:_ZN3mod8HPWindow11npcPosCheckEPN3spm6npcdrv8NPCEntryE
0x1000,0x000099,00000000:_ZN3mod8MenuIconD1Ev
0x1000,0x00003b,000110a0:_ZN3mod13MenuScrollerHC1EPNS_10MenuWindowEPKcfffPFvPS0_PvES8_S6_PFbPNS_10MenuButtonES6_ES6_fPN3wii4RGBAESF_
0x1000,0x00003b,0001064c:_ZN3mod10HitboxMenuC2Ev
0x1000,0x00003b,0000e778:_ZN3mod13ScriptVarMenu5closeEv
0x1000,0x00003b,00011434:_ZN3mod15MenuScrollGroupC1EPNS_10MenuWindowEjffPFvPS0_iPvES4_ibPFbPNS_10MenuButtonES4_ES4_fPN3wii4RGBAESD_
0x1000,0x00003b,0000e9b8:_ZN3mod12SequenceMenuC2Ev
0x1000,0x000041,00000000:_ZN3mod9ChildMenuD1Ev
0x1000,0x00003b,000127d8:_ZN3mod6Window18drawLineCylinderGXEPKN3wii4RGBAEfffffii
0x1000,0x00003b,00011f58:_ZN3mod6Window17drawMessageSearchEPKciiPKN3wii4RGBAEfbbb
0x1000,0x00003b,00010210:_ZN3mod9XYZWindow4initEv
0x1000,0x0000b8,00000000:_ZTVN3mod11InputWindowE
0x1000,0x00003b,000058a0:_ZN3mod13InventoryMenu8idChangeEPNS_15MenuScrollGroupEiPv
0x1000,0x00003b,00010444:_ZN3mod13CentredButtonC2EPNS_10MenuWindowEPKcfPFbPNS_10MenuButtonEPvES7_bfPN3wii4RGBAESC_
0x1000,0x00003b,00010bd0:_ZN3mod8MenuIcon4dispEffb
0x1000,0x00003b,00007dec:_ZN3mod7LogMenuC1Ev
0x1000,0x00003b,00005be0:_ZN3mod13InventoryMenu5getIdEi
0x1000,0x00003b,00010c8c:_ZN3mod8MenuIconC1EPNS_10MenuWindowEiffPFbPNS_10MenuButtonEPvES5_bfPN3wii4RGBAE
0x1000,0x0000f3,00001190:_ZN3mod10gIsDolphinE
0x1000,0x00003b,00007570:_ZN3mod13InventoryMenu12updateIdDispEv
0x1000,0x0000b2,00000000:_ZTVN3mod12GameSaveMenuE
0x1000,0x0000b0,00000000:_ZTVN3mod13ConsoleWindowE
0x1000,0x00003b,0000b05c:_ZN3mod10loadOnBootEv
0x1000,0x00003b,0000c1cc:_unresolved
0x1000,0x0000c6,00000000:_ZTVN3mod8NandMenuE
0x1000,0x000095,00000000:_ZN3mod10HitboxMenuD2Ev
0x1000,0x00003b,00007fb4:_ZN3mod8MainMenuD1Ev
0x1000,0x00003b,00000940:_ZN3mod8APWindow8cmd_stopEiPPKc
0x1000,0x00003b,0000c10c:_epilog
0x1000,0x00003b,0000a528:_ZN3mod8NandMenu5closeEv
0x1000,0x00003b,00004de8:_ZN3mod7HudMenu21updateDecimalPlaceStrEv
0x1000,0x00006d,00000000:_ZN3mod8NandMenuD1Ev
0x1000,0x00004d,00000000:_ZN3mod8HPWindowD2Ev
0x1000,0x00003b,000117f4:_ZN3mod10MenuWindowD0Ev
0x1000,0x00003b,00012694:_ZN3mod6Window14cylinderBarsGXEPKN3wii4RGBAEfffffi
0x1000,0x00003b,0000f958:_ZN3mod6ugSendEiPKvi
0x1000,0x00003b,00007cd0:_ZN3mod13InventoryMenuC2Ev
0x1000,0x00003b,0000fc78:_ZN3mod16evt_get_cur_pixlEPN3spm6evtmgr8EvtEntryEb
0x1000,0x000077,00000000:_ZN3mod8QuitMenuD0Ev
0x1000,0x00003b,00000a84:_ZN3mod8APWindow9cmd_scaleEiPPKc
0x1000,0x0000c0,00000000:_ZTVN3mod13MapDoorWindowE
0x1000,0x00003b,00010610:_ZN3mod10HitboxMenu12optionToggleEPNS_10MenuButtonERb
0x1000,0x0000aa,00001580:_ZN7colours3redE
0x1000,0x000075,00000000:_ZN3mod8QuitMenuD1Ev
0x1000,0x00003b,00010ce0:_ZN3mod12MenuScrollerC1EPNS_10MenuWindowEPKcfffPFvPS0_PvES8_S6_PFbPNS_10MenuButtonES6_ES6_fPN3wii4RGBAESF_
0x1000,0x0000aa,00001588:_ZN7colours5whiteE
0x1000,0x00003b,0000f300:_ZN3mod8StatMenu15updateStatDispsEv
0x1000,0x0000d2,00000000:_ZTVN3mod15TitleTextWindowE
0x1000,0x00003b,0000fcbc:_ZN3mod15evt_freeze_gameEPN3spm6evtmgr8EvtEntryEb
0x1000,0x0000aa,00001578:_ZN7colours6yellowE
0x1000,0x0000f3,00005320:_ZN3mod13PitSelectMenu5sGSW1E
0x1000,0x00003b,0001038c:_ZN3mod13CentredButton4dispEffb
0x1000,0x000073,00000000:_ZN3mod13PitSelectMenuD0Ev
0x1000,0x00003b,00009744:_ZN3mod13MapSelectMenu18updateEntranceDispEv
0x1000,0x00003b,0000d9b4:_ZN3mod13ScriptVarMenu8idChangeEPNS_15MenuScrollGroupEiPv
0x1000,0x00003b,00003b18:_ZN3mod8HPWindowC2Ev
0x1000,0x00009b,00000000:_ZN3mod8MenuIconD0Ev
0x1000,0x00003b,00004e78:_ZN3mod7HudMenuC2Ev
0x1000,0x00003b,0000c8dc:_ZN3mod20evtScriptLoggerPatchEv
0x1000,0x0000d8,00000000:_ZTVN3mod13CentredButtonE
0x1000,0x0000f3,0000536c:_ZN3mod6Window11sWindowListE
0x1000,0x0000f3,00001134:_ZN3mod8HPWindow9sInstanceE
0x1000,0x00003b,00003a9c:_ZN3mod12GameSaveMenu12pitSavePatchEv
0x1000,0x00003b,000038a4:_ZN3mod12GameSaveMenu17initConfirmScreenEv
0x1000,0x00003b,0001165c:_ZN3mod10MenuWindow4dispEv
0x1000,0x00003b,000076dc:_ZN3mod13InventoryMenu12initIdScreenEv
0x1000,0x00003b,00008e5c:_ZN3mod13MapDoorWindow4initEv
0x1000,0x00005d,00000000:_ZN3mod7LogMenuD2Ev
0x1000,0x0000f3,0000532c:_ZN3mod9PyConsole7sParamsE
0x1000,0x00003b,00012ef4:_ZN3mod9PyConsole4mainEv
0x1000,0x00003b,00003f28:_ZN3mod8HPWindow19npcBossBlooperCheckEPN3spm6npcdrv8NPCEntryE
0x1000,0x00003b,00001c10:_ZdlPv
0x1000,0x00003b,00005cf0:_ZN3mod13InventoryMenu8getCountEv
0x1000,0x00003b,00002334:_ZN3mod13evt_nand_openEPN3spm6evtmgr8EvtEntryEb
0x1000,0x000099,00000000:_ZN3mod8MenuIconD2Ev
0x1000,0x00003b,0000e7ac:_ZN3mod12SequenceMenu5closeEv
0x1000,0x0000f3,00001148:_ZN3mod11InputWindow9sInstanceE
0x1000,0x00003b,000040d4:_ZN3mod8HPWindow8bossDispEv
0x1000,0x00003b,00011b80:_ZN3mod10MenuWindow18buttonLinkVerticalEPNS_10MenuButtonES2_
0x1000,0x0000aa,0000157c:_ZN7colours5greenE
0x1000,0x000065,00000000:_ZN3mod13MapSelectMenuD1Ev
0x1000,0x00003b,000028d8:exceptionMessageHandler
0x1000,0x00003b,00010e08:_ZN3mod12MenuScroller4dispEffb
0x1000,0x000069,00000000:_ZN3mod8MiscMenuD2Ev
0x1000,0x00003b,0000e1b8:_ZN3mod13ScriptVarMenu6getValEv
0x1000,0x000097,00000000:_ZN3mod10HitboxMenuD0Ev
0x1000,0x00003b,000025fc:_ZN3mod14evt_nand_checkEPN3spm6evtmgr8EvtEntryEb
0x1000,0x00003b,00012a90:_ZN3mod6Window11drawTextureEPN3wii3tpl9TPLHeaderEjfffPKNS1_4RGBAE
0x1000,0x00003b,00005d5c:_ZN3mod13InventoryMenu15updateItemDispsEv
0x1000,0x00003b,0000db38:_ZN3mod13ScriptVarMenu9valChangeEPNS_15MenuScrollGroupEiPv
0x1000,0x0000f3,00005368:_ZN3mod10MenuWindow8sCurMenuE
0x1000,0x0000da,00000000:_ZTVN3mod10HitboxMenuE
0x1000,0x00003b,000024d8:_ZN3mod14evt_nand_closeEPN3spm6evtmgr8EvtEntryEb
0x1000,0x00003b,00005684:_ZN3mod11InputWindow13updatePressedEv
0x1000,0x00003b,00004e48:_ZN3mod7HudMenu11optionDeltaERai
0x1000,0x0000b4,00000000:_ZTVN3mod8HPWindowE
0x1000,0x0000d0,00000000:_ZTVN3mod8StatMenuE
0x1000,0x00003b,0000a1fc:_ZN3mod8MiscMenu12optionToggleEPNS_10MenuButtonERb
0x1000,0x00003b,000111c8:_ZN3mod15MenuScrollGroup4dispEffb
0x1000,0x00007d,00000000:_ZN3mod12SequenceMenuD2Ev
0x1000,0x00003b,0000e814:_ZN3mod12SequenceMenu9valChangeEPNS_15MenuScrollGroupEiPv
0x1000,0x00003b,00011cb8:_ZN3mod6WindowC2Ev
0x1000,0x00003b,00011b98:_ZN3mod6WindowD1Ev
0x1000,0x00003b,00010b20:_ZN3mod10MenuButtonC2EPNS_10MenuWindowEPKcffPFbPS0_PvES6_bfPN3wii4RGBAESB_
0x1000,0x00003b,00003d74:_ZN3mod8HPWindow12npcDoorCheckEPKc
0x1000,0x00003b,00007460:_ZN3mod13InventoryMenu5setIdEi
0x1000,0x00003b,00006ea8:_ZN3mod13InventoryMenu13getSelectableEv
0x1000,0x00003b,0000d80c:_ZN3mod13ScriptVarMenu9groupDownEPNS_12MenuScrollerEPv
0x1000,0x00003b,000056f0:_ZN3mod11InputWindow4initEv
0x1000,0x00003b,00007dec:_ZN3mod7LogMenuC2Ev
0x1000,0x00003b,000066b8:_ZN3mod13InventoryMenu16initSelectScreenEv
0x1000,0x000049,00000000:_ZN3mod12GameSaveMenuD1Ev
0x1000,0x0000de,00000000:_ZTVN3mod8MenuIconE
0x1000,0x00003b,00010b20:_ZN3mod10MenuButtonC1EPNS_10MenuWindowEPKcffPFbPS0_PvES6_bfPN3wii4RGBAESB_
0x1000,0x00003b,0001084c:_ZN3mod10MenuButton12handleInputsEjj
0x1000,0x00003b,00012294:_ZN3mod6Window9drawBoxGXEPKN3wii4RGBAEffff
0x1000,0x00003b,00011bdc:_ZN3mod6WindowD0Ev
0x1000,0x00003b,0000a100:_ZN3mod8MiscMenu4dispEv
0x1000,0x00003b,00011898:_ZN3mod10MenuWindow9fullCloseEv
0x1000,0x00003b,0000bdc8:_ZN3mod9PyCommandC1EPKcPFNS_12PyConsoleErrEiPS2_E
0x1000,0x00003b,00010998:_ZN3mod10MenuButtonD2Ev
0x1000,0x00003b,00010520:_ZN3mod10HitboxMenu13activateCheckEahfPFvaPvES1_
0x1000,0x00003b,0000e068:_ZN3mod13ScriptVarMenu13updateVarDispEv
0x1000,0x00003b,00003b18:_ZN3mod8HPWindowC1Ev
0x1000,0x00003b,00000ca0:_ZN3mod8APWindowC2Ev
0x1000,0x000079,00000000:_ZN3mod13ScriptVarMenuD2Ev
0x1000,0x00003b,00008ee0:_ZN3mod7MapMenu4dispEv
0x1000,0x0000f3,0000113c:_ZN3mod11InputWindow8sPressedE
0x1000,0x0000eb,000002a4:_ZN3mod9gSettingsE
0x1000,0x00003b,00001c18:_ZdlPvj
0x1000,0x00003b,00011e1c:_ZN3mod6Window11drawMessageEPKciiPKN3wii4RGBAEfbbb
0x1000,0x0000bc,00000000:_ZTVN3mod7LogMenuE
0x1000,0x00003b,00000810:_ZN3mod8APWindow7releaseEv
0x1000,0x0000f3,00001191:_ZN3mod14gIsRiivolutionE
0x1000,0x000049,00000000:_ZN3mod12GameSaveMenuD2Ev
0x1000,0x00003b,0000febc:_ZN3mod11cloneStringEPKc
0x1000,0x0000f3,00001030:exceptionWorkingText
0x1000,0x000061,00000000:_ZN3mod13MapDoorWindowD1Ev
0x1000,0x00003b,000053c0:_ZN3mod11InputWindow4dispEv
0x1000,0x0000f3,00005328:_ZN3mod9PyCommand12sCommandListE
0x1000,0x0000aa,00000208:_ZN3mod8HPWindow10bossTribesE
0x1000,0x00003b,00012cec:_ZN3mod4mainEv
0x1000,0x0000aa,000009a4:_ZN3mod18nand_settings_loadE
0x1000,0x00003b,00003e74:_ZN3mod8HPWindow9bossGetHpEPN3spm6npcdrv8NPCEntryE
0x1000,0x00003b,00008cd4:_ZN3mod13MapDoorWindow4dispEv
0x1000,0x00005f,00000000:_ZN3mod7LogMenuD0Ev
0x1000,0x00003b,00003a60:_ZN3mod12GameSaveMenuC2Ev
0x1000,0x00003b,0001064c:_ZN3mod10HitboxMenuC1Ev
0x1000,0x00003b,0000e9b8:_ZN3mod12SequenceMenuC1Ev
0x1000,0x000053,00000000:_ZN3mod7HudMenuD0Ev
0x1000,0x00003b,00009a24:_ZN3mod13MapSelectMenuC2Ev
0x1000,0x00003b,00008bbc:_ZN3mod8MainMenu16recordLastOptionEv
0x1000,0x00003b,0000fce8:_ZN3mod17evt_unfreeze_gameEPN3spm6evtmgr8EvtEntryEb
0x1000,0x00003d,00000000:_ZN3mod8APWindowD1Ev
0x1000,0x0000ce,00000000:_ZTVN3mod12SequenceMenuE
0x1000,0x000041,00000000:_ZN3mod9ChildMenuD2Ev
0x1000,0x00003b,00011138:_ZN3mod13MenuScrollerH12handleInputsEjj
0x1000,0x00003b,00005d34:_ZN3mod13InventoryMenu6getMaxEv
0x1000,0x00003b,0000b7e4:_ZN3mod13PitSelectMenu12_doMapChangeEv
0x1000,0x00003b,0000b7a4:_ZN3mod13PitSelectMenu15updateGroupDispEv
0x1000,0x00003b,00011c28:_ZN3mod6Window10windowDispEaPv
0x1000,0x000045,00000000:_ZN3mod13ConsoleWindowD2Ev
0x1000,0x00003b,00010c8c:_ZN3mod8MenuIconC2EPNS_10MenuWindowEiffPFbPNS_10MenuButtonEPvES5_bfPN3wii4RGBAE
0x1000,0x00003b,00010a3c:_ZN3mod10MenuButton4dispEffb
0x1000,0x00003b,0000ae8c:_ZN3mod35evt_nandsettings_handle_read_outputEPN3spm6evtmgr8EvtEntryEb
0x1000,0x00003b,0000f5f8:_ZN3mod15TitleTextWindow4dispEv
0x1000,0x00003b,0000a238:_ZN3mod8MiscMenuC2Ev
0x1000,0x00009d,00000000:_ZN3mod12MenuScrollerD2Ev
0x1000,0x0000b6,00000000:_ZTVN3mod7HudMenuE
0x1000,0x0000f3,00001150:_ZN3mod13MapDoorWindow9sInstanceE
0x1000,0x00003b,00000d28:_ZN3mod8APWindow4initEv
0x1000,0x0000e0,00000000:_ZTVN3mod12MenuScrollerE
0x1000,0x00003b,00009310:_ZN3mod13MapSelectMenu5mapUpEPNS_12MenuScrollerEPv
0x1000,0x00003b,00012c74:_ZN3mod6Window19homebuttonDispPatchEv
0x1000,0x0000a7,00000000:_ZN3mod15MenuScrollGroupD0Ev
0x1000,0x00003b,0001254c:_ZN3mod6Window8circleGXEPKN3wii4RGBAEffffi
0x1000,0x00003b,0000b2c8:_ZN3mod10parsePatchEv
0x1000,0x00003b,0000ec0c:_ZN3mod8StatMenu9valueDownEPNS_13MenuScrollerHEPv
0x1000,0x00003b,00010a74:_ZN3mod10MenuButtonD0Ev
0x1000,0x00003b,00003b58:_ZN3mod8HPWindow17npcBossTribeCheckEPN3spm6npcdrv8NPCEntryE
0x1000,0x00003b,00000090:_ZN3mod8APWindow7preDispEv
0x1000,0x0000e6,00000000:_ZTVN3mod10MenuWindowE
0x1000,0x00005d,00000000:_ZN3mod7LogMenuD1Ev
0x1000,0x0000f3,000011c4:_ZN3mod20gNandSettingsSuccessE
0x1000,0x00003b,00011b98:_ZN3mod6WindowD2Ev
0x1000,0x000083,00000000:_ZN3mod8StatMenuD0Ev
0x1000,0x0000eb,00000074:_ZN3mod5modesE
0x1000,0x000085,00000000:_ZN3mod15TitleTextWindowD1Ev
0x1000,0x00007d,00000000:_ZN3mod12SequenceMenuD1Ev
0x1000,0x000043,00000000:_ZN3mod9ChildMenuD0Ev
0x1000,0x0000f3,00001138:_ZN3mod11InputWindow11sPressedIdxE
0x1000,0x00003b,00011ce0:_ZN3mod6Window10drawStringEPKcffPKN3wii4RGBAEfbbb
0x1000,0x00003b,000000f4:_ZN3mod8APWindow4dispEv
0x1000,0x00003b,00011898:_ZN3mod10MenuWindow5closeEv
0x1000,0x00003b,00008744:_ZN3mod8MainMenuC1Ev
0x1000,0x00003b,00004a5c:_ZN3mod8HPWindow4initEv
0x1000,0x00003b,0000ae28:_ZN3mod21evt_nandsettings_failEPN3spm6evtmgr8EvtEntryEb
0x1000,0x00003b,0000acac:_ZN3mod8NandMenu13removeButtonsEv
0x1000,0x0000f3,00000025:inOSPanic
0x1000,0x00003b,00007070:_ZN3mod13InventoryMenu14initEditScreenEv
0x1000,0x00003b,0000e994:_ZN3mod12SequenceMenu6getValEv
0x1000,0x00003b,00006fc8:_ZN3mod13InventoryMenu20updateSelectableDispEv
0x1000,0x00003b,00012360:_ZN3mod6Window16drawLineCuboidGXEPKN3wii4RGBAEffffff
0x1000,0x00003b,00004e78:_ZN3mod7HudMenuC1Ev
0x1000,0x00003b,0000b490:_ZN3mod13PitSelectMenu11doMapChangeEPNS_10MenuButtonEPv
0x1000,0x00003b,00012144:_ZN3mod6Window7setupGXEi
0x1000,0x00003b,00011cb8:_ZN3mod6WindowC1Ev
0x1000,0x0000c4,00000000:_ZTVN3mod8MiscMenuE
0x1000,0x00003b,0000685c:_ZN3mod13InventoryMenu12chooseDeleteEPNS_10MenuButtonEPv
0x1000,0x00003b,0000a540:_ZN3mod8NandMenu15defaultSettingsEPNS_10MenuButtonEPv
0x1000,0x00003b,0000ab40:_ZN3mod8NandMenu4dispEv
0x1000,0x00003b,00011434:_ZN3mod15MenuScrollGroupC2EPNS_10MenuWindowEjffPFvPS0_iPvES4_ibPFbPNS_10MenuButtonES4_ES4_fPN3wii4RGBAESD_
0x1000,0x00004d,00000000:_ZN3mod8HPWindowD1Ev
0x1000,0x00003b,0000b3e0:_ZN3mod13PitSelectMenu9groupSwapEPNS_12MenuScrollerEPv
0x1000,0x00003b,00010f50:_ZN3mod13MenuScrollerH4dispEffb
0x1000,0x00003b,00007fb4:_ZN3mod8MainMenuD2Ev
0x1000,0x00003b,00011964:_ZN3mod10MenuWindowC2Ev
0x1000,0x0000eb,00000044:_ZN3mod11InputWindow9sDpadDefsE
0x1000,0x00003b,00010330:_ZN3mod8BgWindowC1Ev
0x1000,0x00003b,00010444:_ZN3mod13CentredButtonC1EPNS_10MenuWindowEPKcfPFbPNS_10MenuButtonEPvES7_bfPN3wii4RGBAESC_
0x1000,0x00003b,00005620:_ZN3mod11InputWindowC2Ev
0x1000,0x000069,00000000:_ZN3mod8MiscMenuD1Ev
0x1000,0x0000c8,00000000:_ZTVN3mod13PitSelectMenuE
0x1000,0x00003b,00008df4:_ZN3mod13MapDoorWindowC1Ev
0x1000,0x000059,00000000:_ZN3mod13InventoryMenuD1Ev
0x1000,0x00003b,0000e048:_ZN3mod13ScriptVarMenu15updateGroupDispEv
0x1000,0x00003b,00006c88:_ZN3mod13InventoryMenu8finishIdEPNS_10MenuButtonEPv
0x1000,0x00003b,00008df4:_ZN3mod13MapDoorWindowC2Ev
0x1000,0x00008d,00000000:_ZN3mod8BgWindowD2Ev
0x1000,0x00003b,0000bdc8:_ZN3mod9PyCommandC2EPKcPFNS_12PyConsoleErrEiPS2_E
0x1000,0x00003b,00008744:_ZN3mod8MainMenuC2Ev
0x1000,0x00003b,00001c1c:_ZdaPvj
0x1000,0x0000f3,00001192:_ZN3mod14gIsPatchedDiscE
0x1000,0x00003b,000073b4:_ZN3mod13InventoryMenu14exitEditScreenEv
0x1000,0x00006b,00000000:_ZN3mod8MiscMenuD0Ev
0x1000,0x00003b,00011a98:_ZN3mod10MenuWindow16drawStringCentreEPKcfPKN3wii4RGBAEfbbb
0x1000,0x00003b,0000f404:_ZN3mod8StatMenuC2Ev
0x1000,0x00003b,0000bf58:_ZN3mod8QuitMenuC2Ev
0x1000,0x00003b,0000ee88:_ZN3mod8StatMenu7valueUpEPNS_13MenuScrollerHEPv
0x1000,0x0000eb,000002ac:_ZN3mod8newCharsE
0x1000,0x00003b,00011bd8:_ZN3mod6Window7preDispEv
0x1000,0x00003b,0000adc8:_ZN3mod8NandMenuC1Ev
0x1000,0x00003b,0000e2d4:_ZN3mod13ScriptVarMenu6setValEj
0x1000,0x00003b,00010d78:_ZN3mod12MenuScroller12handleInputsEjj
0x1000,0x00003b,00001148:_ZN3mod13ConsoleWindowC2Ev
0x1000,0x0000aa,00000a74:_ZN3mod20nand_settings_deleteE
0x1000,0x00003b,0000f404:_ZN3mod8StatMenuC1Ev
0x1000,0x000091,00000000:_ZN3mod13CentredButtonD1Ev
0x1000,0x00008f,00000000:_ZN3mod8BgWindowD0Ev
0x1000,0x00003b,00001c14:_ZdaPv
0x1000,0x00003b,0000e9a4:_ZN3mod12SequenceMenu6setValEi
0x1000,0x00003b,0000a994:_ZN3mod8NandMenu12spawnButtonsEv
0x1000,0x000093,00000000:_ZN3mod13CentredButtonD0Ev
0x1000,0x00003b,0000e590:_ZN3mod13ScriptVarMenuC1Ev
0x1000,0x0000a1,00000000:_ZN3mod13MenuScrollerHD1Ev
0x1000,0x00003b,00004dc4:_ZN3mod7HudMenu14updateDelayStrEv
0x1000,0x000063,00000000:_ZN3mod13MapDoorWindowD0Ev
0x1000,0x000067,00000000:_ZN3mod13MapSelectMenuD0Ev
0x1000,0x0000eb,00000004:_ZN3mod11InputWindow5sDefsE
0x1000,0x00003b,00005658:_ZN3mod11InputWindow13showAsPressedEj
0x1000,0x000081,00000000:_ZN3mod8StatMenuD1Ev
0x1000,0x00003b,000021d0:_ZN3mod14evt_nand_writeEPN3spm6evtmgr8EvtEntryEb
0x1000,0x00003f,00000000:_ZN3mod8APWindowD0Ev
0x1000,0x00003b,00001c30:_ZnajN3spm6memory4HeapE
0x1000,0x00003b,00002d78:_ZN3mod13exceptionDrawEv
0x1000,0x0000a3,00000000:_ZN3mod13MenuScrollerHD0Ev
0x1000,0x0000f3,0000114c:_ZN3mod8MainMenu11sLastOptionE
0x1000,0x00003b,000115c4:_ZN3mod10MenuWindowD1Ev
0x1000,0x00003b,0000e7e0:_ZN3mod12SequenceMenu9fullCloseEv
0x1000,0x00003b,0000140c:_ZN3mod13ConsoleWindow5_pushEPKcPKN3wii4RGBAEPFvS2_E
0x1000,0x00003b,00000e98:_ZN3mod12tryChainloadEv
0x1000,0x00003b,0000970c:_ZN3mod13MapSelectMenu15updateGroupDispEv
0x1000,0x0000f3,00005364:_ZN3mod9XYZWindow9sInstanceE
0x1000,0x0000be,00000000:_ZTVN3mod8MainMenuE
0x1000,0x00003b,000114e8:_ZN3mod15MenuScrollGroup12handleInputsEjj
0x1000,0x00003b,0000a238:_ZN3mod8MiscMenuC1Ev
0x1000,0x00003b,00010998:_ZN3mod10MenuButtonD1Ev
0x1000,0x000091,00000000:_ZN3mod13CentredButtonD2Ev
0x1000,0x00003b,0000fe8c:_ZN3mod7check3dEv
0x1000,0x00003b,00006b44:_ZN3mod13InventoryMenu5closeEv
0x1000,0x00003b,0000499c:_ZN3mod8HPWindow4dispEv
0x1000,0x00003b,0001030c:_ZN3mod8BgWindow4dispEv
0x1000,0x00003b,0000faec:_ZN3mod6ugRecvEiPvi
0x1000,0x00003b,00011a14:_ZN3mod10MenuWindow15getCentreAlignXEPKcf
0x1000,0x0000aa,00000b34:_ZN3mod19nand_settings_writeE
0x1000,0x00008b,00000000:_ZN3mod9XYZWindowD0Ev
0x1000,0x0000f3,00005324:_ZN3mod13PitSelectMenu8sMapNameE
0x1000,0x00003b,0000fd14:_ZN3mod18updateSaveChecksumEPN3spm7nandmgr8SaveFileE
0x1000,0x00003b,00004e0c:_ZN3mod7HudMenu12optionToggleEPNS_10MenuButtonERb
0x1000,0x00006d,00000000:_ZN3mod8NandMenuD2Ev
0x1000,0x000071,00000000:_ZN3mod13PitSelectMenuD1Ev
0x1000,0x00003b,0000f660:_ZN3mod15TitleTextWindowC1Ev
0x1000,0x00003b,0000eb14:_ZN3mod8StatMenu5closeEv
0x1000,0x00003b,00007d28:_ZN3mod7LogMenu11optionCycleEPNS_10MenuButtonEPv
0x1000,0x0000ba,00000000:_ZTVN3mod13InventoryMenuE
0x1000,0x00003b,00009590:_ZN3mod13MapSelectMenu11doMapChangeEPNS_10MenuButtonEPv
0x1000,0x0000c2,00000000:_ZTVN3mod13MapSelectMenuE
0x1000,0x0000e2,00000000:_ZTVN3mod13MenuScrollerHE
0x1000,0x00003b,0000fdf4:_ZN3mod13getToggleNameEb
0x1000,0x00003b,00005620:_ZN3mod11InputWindowC1Ev
0x1000,0x00003b,00011bd8:_ZN3mod6Window4dispEv
0x1000,0x00003b,00008ed4:_ZN3mod7MapMenu5closeEv
0x1000,0x00003b,0000f660:_ZN3mod15TitleTextWindowC2Ev
0x1000,0x00003b,0000972c:_ZN3mod13MapSelectMenu13updateMapDispEv
0x1000,0x00003b,000091d8:_ZN3mod13MapSelectMenu9groupDownEPNS_12MenuScrollerEPv
0x1000,0x00003b,00006614:_ZN3mod13InventoryMenu10modeChangeEPNS_10MenuButtonEPv
0x1000,0x0000f3,00000008:_ZN3mod13ConsoleWindow9sInstanceE
0x1000,0x00009f,00000000:_ZN3mod12MenuScrollerD0Ev
0x1000,0x0000aa,00001584:_ZN7colours5blackE
0x1000,0x00003b,00001f48:_ZN3mod15evt_nand_deleteEPN3spm6evtmgr8EvtEntryEb
0x1000,0x00003d,00000000:_ZN3mod8APWindowD2Ev
0x1000,0x00003b,00001d4c:_ZN3mod13evtDebugPatchEv
0x1000,0x00003b,0000adc8:_ZN3mod8NandMenuC2Ev
0x1000,0x00003b,00002e14:_ZN3mod19checkExceptionFlagsEv
0x1000,0x00003b,0000794c:_ZN3mod13InventoryMenu7addItemEPNS_10MenuButtonEPv
0x1000,0x00003b,0000d660:_ZN3mod13ScriptVarMenu7groupUpEPNS_12MenuScrollerEPv
0x1000,0x00003b,00003f58:_ZN3mod8HPWindow18npcBossSammerCheckEPN3spm6npcdrv8NPCEntryE
0x1000,0x00003b,00007cd0:_ZN3mod13InventoryMenuC1Ev
0x1000,0x00003b,0000076c:_ZN3mod8APWindow12announceAnimEPKcjj
0x1000,0x00003b,00000ca0:_ZN3mod8APWindowC1Ev
0x1000,0x00003b,000115c4:_ZN3mod10MenuWindowD2Ev
0x1000,0x00003b,00001148:_ZN3mod13ConsoleWindowC1Ev
0x1000,0x00007f,00000000:_ZN3mod12SequenceMenuD0Ev
0x1000,0x0000d4,00000000:_ZTVN3mod9XYZWindowE
0x1000,0x000071,00000000:_ZN3mod13PitSelectMenuD2Ev
0x1000,0x00003b,00011b8c:_ZN3mod10MenuWindow20buttonLinkHorizontalEPNS_10MenuButtonES2_
0x1000,0x00003b,0000b3a0:_ZN3mod5patch10_writeWordEPvj
0x1000,0x00003b,0000ff00:_ZN3mod8strcountEPKcc
0x1000,0x00003b,00000fc4:_ZN3mod13ConsoleWindow10autoFreeCbEPKc
0x1000,0x000059,00000000:_ZN3mod13InventoryMenuD2Ev
0x1000,0x000051,00000000:_ZN3mod7HudMenuD1Ev
0x1000,0x000087,00000000:_ZN3mod15TitleTextWindowD0Ev
0x1000,0x00003b,000101a0:_ZN3mod9XYZWindowC2Ev
0x1000,0x00003b,0000d62c:_ZN3mod13ScriptVarMenu9fullCloseEv
0x1000,0x00003b,000039f8:_ZN3mod12GameSaveMenu10exitScreenEv
0x1000,0x00009d,00000000:_ZN3mod12MenuScrollerD1Ev
0x1000,0x00003b,0000a6e4:_ZN3mod8NandMenu12saveSettingsEPNS_10MenuButtonEPv
0x1000,0x0000ae,00000000:_ZTVN3mod9ChildMenuE
0x1000,0x00003b,0000206c:_ZN3mod13evt_nand_readEPN3spm6evtmgr8EvtEntryEb
0x1000,0x00003b,00001bf8:_Znwj
0x1000,0x00003b,00000860:_ZN3mod8APWindow9cmd_startEiPPKc
0x1000,0x00003b,0000f748:_ZN3mod15TitleTextWindow4initEv
0x1000,0x00003b,000120a8:_ZN3mod6Window7drawBoxEtPKN3wii4RGBAEfffff
0x1000,0x00003b,0000b7d4:_ZN3mod13PitSelectMenu15updateFloorDispEv
0x1000,0x00003b,000101a0:_ZN3mod9XYZWindowC1Ev
0x1000,0x00003b,0000455c:_ZN3mod8HPWindow9enemyDispEv
0x1000,0x00003b,00009928:_ZN3mod13MapSelectMenu12onMapChangedEv
0x1000,0x00003b,00012b68:_ZN3mod6Window10windowMainEv
0x1000,0x00003b,0000d428:_ZN3mod14evtVarLogPatchEv
0x1000,0x00003b,0000fdac:_ZN3mod15getGameRevisionEv
0x1000,0x0000e8,00000000:_ZTVN3mod6WindowE
0x1000,0x0000ac,00000000:_ZTVN3mod8APWindowE
0x1000,0x000079,00000000:_ZN3mod13ScriptVarMenuD1Ev
0x1000,0x00003b,000085ec:_ZN3mod8MainMenuD0Ev
0x1000,0x0000a5,00000000:_ZN3mod15MenuScrollGroupD1Ev
0x1000,0x000057,00000000:_ZN3mod11InputWindowD0Ev
0x1000,0x00003b,00001534:_ZN3mod13ConsoleWindow4initEv
0x1000,0x0000f3,0000115c:_ZN3mod13MapSelectMenu8sDoorStrE
0x1000,0x00003b,00012c8c:OSPanicForwarder
0x1000,0x00004f,00000000:_ZN3mod8HPWindowD0Ev
0x1000,0x00003b,000110a0:_ZN3mod13MenuScrollerHC2EPNS_10MenuWindowEPKcfffPFvPS0_PvES8_S6_PFbPNS_10MenuButtonES6_ES6_fPN3wii4RGBAESF_
0x1000,0x00003b,0000babc:_ZN3mod13PitSelectMenuC2Ev
0x1000,0x000089,00000000:_ZN3mod9XYZWindowD1Ev
0x1000,0x00003b,00009068:_ZN3mod13MapSelectMenu12entranceDownEPNS_12MenuScrollerEPv
0x1000,0x00006f,00000000:_ZN3mod8NandMenuD0Ev
0x1000,0x000085,00000000:_ZN3mod15TitleTextWindowD2Ev
0x1000,0x00003b,0000998c:_ZN3mod11getMapGroupEPKc
0x1000,0x00003b,00009a24:_ZN3mod13MapSelectMenuC1Ev
0x1000,0x0000f3,00001193:_ZN3mod6gIs4_3E
0x1000,0x00003b,0000a58c:_ZN3mod8NandMenu12loadSettingsEPNS_10MenuButtonEPv
0x1000,0x00003b,0000f1f8:_ZN3mod8StatMenu8setValueEii
0x1000,0x00003b,00006f3c:_ZN3mod13InventoryMenu13setSelectableEb
0x1000,0x00003b,0001251c:_ZN3mod6Window14drawLineCubeGXEPKN3wii4RGBAEffff
0x1000,0x0000e4,00000000:_ZTVN3mod15MenuScrollGroupE
0x1000,0x0000d6,00000000:_ZTVN3mod8BgWindowE
0x1000,0x00003b,0000fd70:_ZN3mod13getGameRegionEv
0x1000,0x00003b,0000c04c:_prolog
0x1000,0x00003b,0000bf58:_ZN3mod8QuitMenuC1Ev
0x1000,0x00003b,0000ff64:_ZN3mod9XYZWindow4dispEv
0x1000,0x000047,00000000:_ZN3mod13ConsoleWindowD0Ev
0x1000,0x00003b,000009cc:_ZN3mod8APWindow7cmd_posEiPPKc
0x1000,0x0000cc,00000000:_ZTVN3mod13ScriptVarMenuE
0x1000,0x00003b,0000b188:_ZN3mod20nandSettingsDefaultsEv
0x1000,0x00003b,00008fd0:_ZN3mod13MapSelectMenu10entranceUpEPNS_12MenuScrollerEPv
0x1000,0x00003b,00002d94:exceptionOSReport
0x1000,0x00003b,00000b3c:_ZN3mod8APWindow8cmd_animEiPPKc
0x1000,0x00003b,0000a83c:_ZN3mod8NandMenu14deleteSettingsEPNS_10MenuButtonEPv
0x1000,0x00003b,0000babc:_ZN3mod13PitSelectMenuC1Ev
0x1000,0x00003b,00009450:_ZN3mod13MapSelectMenu7mapDownEPNS_12MenuScrollerEPv
0x1000,0x00003b,0000ff38:_ZN3mod10fileExistsEPKc
0x1000,0x0000f3,0000117c:_ZN3mod13MapSelectMenu23playEffectThisMapChangeE
0x1000,0x00003b,0000f10c:_ZN3mod8StatMenu8getValueEi
0x1000,0x00003b,00000f64:_ZN3mod9ChildMenu5closeEv
0x1000,0x00003b,00001de4:_ZN3mod15evt_nand_createEPN3spm6evtmgr8EvtEntryEb
0x1000,0x000061,00000000:_ZN3mod13MapDoorWindowD2Ev
0x1000,0x00003b,00001c20:_ZnwjN3spm6memory4HeapE
0x1000,0x0000f3,00001154:_ZN3mod13MapSelectMenu11sFullMapStrE
0x1000,0x00003b,0000d418:_ZN3mod14scriptLogOnOffEb
0x1000,0x00003b,00003738:_ZN3mod12GameSaveMenu14initMainScreenEv
0x1000,0x00003b,000012e0:_ZN3mod13ConsoleWindow9pushCloneEPKcPKN3wii4RGBAE
0x1000,0x00003b,00003bc0:_ZN3mod8HPWindow18npcEnemyTribeCheckEPN3spm6npcdrv8NPCEntryE
